
kernel/kernel.elf:     file format elf64-x86-64


Disassembly of section .text:

ffffffff80000000 <_ZN3ELF8ParseELFEPvN6Paging12AddressSpaceE>:
ffffffff80000000:	55                   	push   %rbp
ffffffff80000001:	48 89 e5             	mov    %rsp,%rbp
ffffffff80000004:	48 83 ec 70          	sub    $0x70,%rsp
ffffffff80000008:	48 89 7d 98          	mov    %rdi,-0x68(%rbp)
ffffffff8000000c:	48 89 75 90          	mov    %rsi,-0x70(%rbp)
ffffffff80000010:	48 8b 45 98          	mov    -0x68(%rbp),%rax
ffffffff80000014:	48 89 45 d8          	mov    %rax,-0x28(%rbp)
ffffffff80000018:	48 8b 45 98          	mov    -0x68(%rbp),%rax
ffffffff8000001c:	48 89 45 d0          	mov    %rax,-0x30(%rbp)
ffffffff80000020:	48 8b 45 d0          	mov    -0x30(%rbp),%rax
ffffffff80000024:	48 8b 50 20          	mov    0x20(%rax),%rdx
ffffffff80000028:	48 8b 45 d8          	mov    -0x28(%rbp),%rax
ffffffff8000002c:	48 01 d0             	add    %rdx,%rax
ffffffff8000002f:	48 89 45 f8          	mov    %rax,-0x8(%rbp)
ffffffff80000033:	c7 45 f4 00 00 00 00 	movl   $0x0,-0xc(%rbp)
ffffffff8000003a:	e9 14 01 00 00       	jmp    ffffffff80000153 <_ZN3ELF8ParseELFEPvN6Paging12AddressSpaceE+0x153>
ffffffff8000003f:	48 8b 45 f8          	mov    -0x8(%rbp),%rax
ffffffff80000043:	8b 00                	mov    (%rax),%eax
ffffffff80000045:	83 f8 01             	cmp    $0x1,%eax
ffffffff80000048:	0f 85 fb 00 00 00    	jne    ffffffff80000149 <_ZN3ELF8ParseELFEPvN6Paging12AddressSpaceE+0x149>
ffffffff8000004e:	48 8b 45 f8          	mov    -0x8(%rbp),%rax
ffffffff80000052:	48 8b 40 10          	mov    0x10(%rax),%rax
ffffffff80000056:	48 89 45 c8          	mov    %rax,-0x38(%rbp)
ffffffff8000005a:	48 8b 45 f8          	mov    -0x8(%rbp),%rax
ffffffff8000005e:	48 8b 40 28          	mov    0x28(%rax),%rax
ffffffff80000062:	48 89 45 a8          	mov    %rax,-0x58(%rbp)
ffffffff80000066:	48 8b 45 a8          	mov    -0x58(%rbp),%rax
ffffffff8000006a:	48 05 ff 0f 00 00    	add    $0xfff,%rax
ffffffff80000070:	48 c1 e8 0c          	shr    $0xc,%rax
ffffffff80000074:	89 c7                	mov    %eax,%edi
ffffffff80000076:	e8 24 19 00 00       	call   ffffffff8000199f <_ZN3PMM8GetPagesEj>
ffffffff8000007b:	48 89 45 c0          	mov    %rax,-0x40(%rbp)
ffffffff8000007f:	48 8b 45 f8          	mov    -0x8(%rbp),%rax
ffffffff80000083:	48 8b 40 28          	mov    0x28(%rax),%rax
ffffffff80000087:	48 89 45 b0          	mov    %rax,-0x50(%rbp)
ffffffff8000008b:	48 8b 45 b0          	mov    -0x50(%rbp),%rax
ffffffff8000008f:	48 05 ff 0f 00 00    	add    $0xfff,%rax
ffffffff80000095:	48 c1 e8 0c          	shr    $0xc,%rax
ffffffff80000099:	89 c1                	mov    %eax,%ecx
ffffffff8000009b:	48 8b 55 c8          	mov    -0x38(%rbp),%rdx
ffffffff8000009f:	48 8b 75 c0          	mov    -0x40(%rbp),%rsi
ffffffff800000a3:	48 8b 45 90          	mov    -0x70(%rbp),%rax
ffffffff800000a7:	49 89 c8             	mov    %rcx,%r8
ffffffff800000aa:	b9 07 00 00 00       	mov    $0x7,%ecx
ffffffff800000af:	48 89 c7             	mov    %rax,%rdi
ffffffff800000b2:	e8 20 21 00 00       	call   ffffffff800021d7 <_ZN6Paging8MapPagesENS_12AddressSpaceEmmtm>
ffffffff800000b7:	48 8b 45 f8          	mov    -0x8(%rbp),%rax
ffffffff800000bb:	48 8b 50 08          	mov    0x8(%rax),%rdx
ffffffff800000bf:	48 8b 45 d8          	mov    -0x28(%rbp),%rax
ffffffff800000c3:	48 01 d0             	add    %rdx,%rax
ffffffff800000c6:	48 89 45 b8          	mov    %rax,-0x48(%rbp)
ffffffff800000ca:	48 c7 45 e8 00 00 00 	movq   $0x0,-0x18(%rbp)
ffffffff800000d1:	00 
ffffffff800000d2:	eb 20                	jmp    ffffffff800000f4 <_ZN3ELF8ParseELFEPvN6Paging12AddressSpaceE+0xf4>
ffffffff800000d4:	48 8b 55 b8          	mov    -0x48(%rbp),%rdx
ffffffff800000d8:	48 8b 45 e8          	mov    -0x18(%rbp),%rax
ffffffff800000dc:	48 01 d0             	add    %rdx,%rax
ffffffff800000df:	48 8b 4d c8          	mov    -0x38(%rbp),%rcx
ffffffff800000e3:	48 8b 55 e8          	mov    -0x18(%rbp),%rdx
ffffffff800000e7:	48 01 ca             	add    %rcx,%rdx
ffffffff800000ea:	0f b6 00             	movzbl (%rax),%eax
ffffffff800000ed:	88 02                	mov    %al,(%rdx)
ffffffff800000ef:	48 83 45 e8 01       	addq   $0x1,-0x18(%rbp)
ffffffff800000f4:	48 8b 45 f8          	mov    -0x8(%rbp),%rax
ffffffff800000f8:	48 8b 40 20          	mov    0x20(%rax),%rax
ffffffff800000fc:	48 39 45 e8          	cmp    %rax,-0x18(%rbp)
ffffffff80000100:	72 d2                	jb     ffffffff800000d4 <_ZN3ELF8ParseELFEPvN6Paging12AddressSpaceE+0xd4>
ffffffff80000102:	48 8b 45 f8          	mov    -0x8(%rbp),%rax
ffffffff80000106:	48 8b 40 20          	mov    0x20(%rax),%rax
ffffffff8000010a:	48 01 45 c8          	add    %rax,-0x38(%rbp)
ffffffff8000010e:	48 c7 45 e0 00 00 00 	movq   $0x0,-0x20(%rbp)
ffffffff80000115:	00 
ffffffff80000116:	eb 13                	jmp    ffffffff8000012b <_ZN3ELF8ParseELFEPvN6Paging12AddressSpaceE+0x12b>
ffffffff80000118:	48 8b 55 c8          	mov    -0x38(%rbp),%rdx
ffffffff8000011c:	48 8b 45 e0          	mov    -0x20(%rbp),%rax
ffffffff80000120:	48 01 d0             	add    %rdx,%rax
ffffffff80000123:	c6 00 00             	movb   $0x0,(%rax)
ffffffff80000126:	48 83 45 e0 01       	addq   $0x1,-0x20(%rbp)
ffffffff8000012b:	48 8b 45 f8          	mov    -0x8(%rbp),%rax
ffffffff8000012f:	48 8b 50 28          	mov    0x28(%rax),%rdx
ffffffff80000133:	48 8b 45 f8          	mov    -0x8(%rbp),%rax
ffffffff80000137:	48 8b 48 20          	mov    0x20(%rax),%rcx
ffffffff8000013b:	48 89 d0             	mov    %rdx,%rax
ffffffff8000013e:	48 29 c8             	sub    %rcx,%rax
ffffffff80000141:	48 39 45 e0          	cmp    %rax,-0x20(%rbp)
ffffffff80000145:	72 d1                	jb     ffffffff80000118 <_ZN3ELF8ParseELFEPvN6Paging12AddressSpaceE+0x118>
ffffffff80000147:	eb 01                	jmp    ffffffff8000014a <_ZN3ELF8ParseELFEPvN6Paging12AddressSpaceE+0x14a>
ffffffff80000149:	90                   	nop
ffffffff8000014a:	83 45 f4 01          	addl   $0x1,-0xc(%rbp)
ffffffff8000014e:	48 83 45 f8 38       	addq   $0x38,-0x8(%rbp)
ffffffff80000153:	48 8b 45 d0          	mov    -0x30(%rbp),%rax
ffffffff80000157:	0f b7 40 38          	movzwl 0x38(%rax),%eax
ffffffff8000015b:	0f b7 c0             	movzwl %ax,%eax
ffffffff8000015e:	39 45 f4             	cmp    %eax,-0xc(%rbp)
ffffffff80000161:	0f 82 d8 fe ff ff    	jb     ffffffff8000003f <_ZN3ELF8ParseELFEPvN6Paging12AddressSpaceE+0x3f>
ffffffff80000167:	48 8b 45 d0          	mov    -0x30(%rbp),%rax
ffffffff8000016b:	48 8b 40 18          	mov    0x18(%rax),%rax
ffffffff8000016f:	c9                   	leave
ffffffff80000170:	c3                   	ret

ffffffff80000171 <IRQHandler>:
ffffffff80000171:	55                   	push   %rbp
ffffffff80000172:	48 89 e5             	mov    %rsp,%rbp
ffffffff80000175:	48 83 ec 10          	sub    $0x10,%rsp
ffffffff80000179:	48 89 7d f8          	mov    %rdi,-0x8(%rbp)
ffffffff8000017d:	48 8b 45 f8          	mov    -0x8(%rbp),%rax
ffffffff80000181:	48 8b 80 98 00 00 00 	mov    0x98(%rax),%rax
ffffffff80000188:	48 83 e8 20          	sub    $0x20,%rax
ffffffff8000018c:	48 8b 04 c5 40 2f 00 	mov    -0x7fffd0c0(,%rax,8),%rax
ffffffff80000193:	80 
ffffffff80000194:	48 85 c0             	test   %rax,%rax
ffffffff80000197:	74 1c                	je     ffffffff800001b5 <IRQHandler+0x44>
ffffffff80000199:	48 8b 45 f8          	mov    -0x8(%rbp),%rax
ffffffff8000019d:	48 8b 80 98 00 00 00 	mov    0x98(%rax),%rax
ffffffff800001a4:	48 8b 14 c5 40 2f 00 	mov    -0x7fffd0c0(,%rax,8),%rdx
ffffffff800001ab:	80 
ffffffff800001ac:	48 8b 45 f8          	mov    -0x8(%rbp),%rax
ffffffff800001b0:	48 89 c7             	mov    %rax,%rdi
ffffffff800001b3:	ff d2                	call   *%rdx
ffffffff800001b5:	48 8b 45 f8          	mov    -0x8(%rbp),%rax
ffffffff800001b9:	48 8b 80 98 00 00 00 	mov    0x98(%rax),%rax
ffffffff800001c0:	83 e8 20             	sub    $0x20,%eax
ffffffff800001c3:	0f b6 c0             	movzbl %al,%eax
ffffffff800001c6:	89 c7                	mov    %eax,%edi
ffffffff800001c8:	e8 83 12 00 00       	call   ffffffff80001450 <_ZN3PIC7SendEOIEh>
ffffffff800001cd:	90                   	nop
ffffffff800001ce:	c9                   	leave
ffffffff800001cf:	c3                   	ret

ffffffff800001d0 <_Z18RegisterIRQHandlerhPFvP14InterruptFrameE>:
ffffffff800001d0:	55                   	push   %rbp
ffffffff800001d1:	48 89 e5             	mov    %rsp,%rbp
ffffffff800001d4:	48 83 ec 10          	sub    $0x10,%rsp
ffffffff800001d8:	89 f8                	mov    %edi,%eax
ffffffff800001da:	48 89 75 f0          	mov    %rsi,-0x10(%rbp)
ffffffff800001de:	88 45 fc             	mov    %al,-0x4(%rbp)
ffffffff800001e1:	0f b6 45 fc          	movzbl -0x4(%rbp),%eax
ffffffff800001e5:	48 98                	cltq
ffffffff800001e7:	48 8b 55 f0          	mov    -0x10(%rbp),%rdx
ffffffff800001eb:	48 89 14 c5 40 2f 00 	mov    %rdx,-0x7fffd0c0(,%rax,8)
ffffffff800001f2:	80 
ffffffff800001f3:	0f b6 45 fc          	movzbl -0x4(%rbp),%eax
ffffffff800001f7:	89 c7                	mov    %eax,%edi
ffffffff800001f9:	e8 1a 13 00 00       	call   ffffffff80001518 <_ZN3PIC6UnmaskEh>
ffffffff800001fe:	90                   	nop
ffffffff800001ff:	c9                   	leave
ffffffff80000200:	c3                   	ret
ffffffff80000201:	90                   	nop

ffffffff80000202 <_ZN8IDTEntryC1Emhh>:
ffffffff80000202:	55                   	push   %rbp
ffffffff80000203:	48 89 e5             	mov    %rsp,%rbp
ffffffff80000206:	48 83 ec 18          	sub    $0x18,%rsp
ffffffff8000020a:	48 89 7d f8          	mov    %rdi,-0x8(%rbp)
ffffffff8000020e:	48 89 75 f0          	mov    %rsi,-0x10(%rbp)
ffffffff80000212:	89 c8                	mov    %ecx,%eax
ffffffff80000214:	88 55 ec             	mov    %dl,-0x14(%rbp)
ffffffff80000217:	88 45 e8             	mov    %al,-0x18(%rbp)
ffffffff8000021a:	48 8b 45 f0          	mov    -0x10(%rbp),%rax
ffffffff8000021e:	89 c2                	mov    %eax,%edx
ffffffff80000220:	48 8b 45 f8          	mov    -0x8(%rbp),%rax
ffffffff80000224:	66 89 10             	mov    %dx,(%rax)
ffffffff80000227:	48 8b 45 f8          	mov    -0x8(%rbp),%rax
ffffffff8000022b:	66 c7 40 02 08 00    	movw   $0x8,0x2(%rax)
ffffffff80000231:	48 8b 45 f8          	mov    -0x8(%rbp),%rax
ffffffff80000235:	0f b6 55 e8          	movzbl -0x18(%rbp),%edx
ffffffff80000239:	88 50 04             	mov    %dl,0x4(%rax)
ffffffff8000023c:	48 8b 45 f8          	mov    -0x8(%rbp),%rax
ffffffff80000240:	0f b6 55 ec          	movzbl -0x14(%rbp),%edx
ffffffff80000244:	88 50 05             	mov    %dl,0x5(%rax)
ffffffff80000247:	48 8b 45 f0          	mov    -0x10(%rbp),%rax
ffffffff8000024b:	48 c1 e8 10          	shr    $0x10,%rax
ffffffff8000024f:	89 c2                	mov    %eax,%edx
ffffffff80000251:	48 8b 45 f8          	mov    -0x8(%rbp),%rax
ffffffff80000255:	66 89 50 06          	mov    %dx,0x6(%rax)
ffffffff80000259:	48 8b 45 f0          	mov    -0x10(%rbp),%rax
ffffffff8000025d:	48 c1 e8 20          	shr    $0x20,%rax
ffffffff80000261:	89 c2                	mov    %eax,%edx
ffffffff80000263:	48 8b 45 f8          	mov    -0x8(%rbp),%rax
ffffffff80000267:	89 50 08             	mov    %edx,0x8(%rax)
ffffffff8000026a:	48 8b 45 f8          	mov    -0x8(%rbp),%rax
ffffffff8000026e:	c7 40 0c 00 00 00 00 	movl   $0x0,0xc(%rax)
ffffffff80000275:	90                   	nop
ffffffff80000276:	c9                   	leave
ffffffff80000277:	c3                   	ret

ffffffff80000278 <_ZN8IDTEntryC1Ev>:
ffffffff80000278:	55                   	push   %rbp
ffffffff80000279:	48 89 e5             	mov    %rsp,%rbp
ffffffff8000027c:	48 83 ec 08          	sub    $0x8,%rsp
ffffffff80000280:	48 89 7d f8          	mov    %rdi,-0x8(%rbp)
ffffffff80000284:	48 8b 45 f8          	mov    -0x8(%rbp),%rax
ffffffff80000288:	66 c7 00 00 00       	movw   $0x0,(%rax)
ffffffff8000028d:	48 8b 45 f8          	mov    -0x8(%rbp),%rax
ffffffff80000291:	66 c7 40 02 00 00    	movw   $0x0,0x2(%rax)
ffffffff80000297:	48 8b 45 f8          	mov    -0x8(%rbp),%rax
ffffffff8000029b:	c6 40 04 00          	movb   $0x0,0x4(%rax)
ffffffff8000029f:	48 8b 45 f8          	mov    -0x8(%rbp),%rax
ffffffff800002a3:	c6 40 05 00          	movb   $0x0,0x5(%rax)
ffffffff800002a7:	48 8b 45 f8          	mov    -0x8(%rbp),%rax
ffffffff800002ab:	66 c7 40 06 00 00    	movw   $0x0,0x6(%rax)
ffffffff800002b1:	48 8b 45 f8          	mov    -0x8(%rbp),%rax
ffffffff800002b5:	c7 40 08 00 00 00 00 	movl   $0x0,0x8(%rax)
ffffffff800002bc:	48 8b 45 f8          	mov    -0x8(%rbp),%rax
ffffffff800002c0:	c7 40 0c 00 00 00 00 	movl   $0x0,0xc(%rax)
ffffffff800002c7:	90                   	nop
ffffffff800002c8:	c9                   	leave
ffffffff800002c9:	c3                   	ret

ffffffff800002ca <_Z7InitIDTv>:
ffffffff800002ca:	55                   	push   %rbp
ffffffff800002cb:	48 89 e5             	mov    %rsp,%rbp
ffffffff800002ce:	48 83 ec 40          	sub    $0x40,%rsp
ffffffff800002d2:	66 c7 05 e5 3c 00 00 	movw   $0xfff,0x3ce5(%rip)        # ffffffff80003fc0 <_ZL4idtr>
ffffffff800002d9:	ff 0f 
ffffffff800002db:	48 c7 05 dc 3c 00 00 	movq   $0xffffffff80002fc0,0x3cdc(%rip)        # ffffffff80003fc2 <_ZL4idtr+0x2>
ffffffff800002e2:	c0 2f 00 80 
ffffffff800002e6:	c6 45 ff 00          	movb   $0x0,-0x1(%rbp)
ffffffff800002ea:	eb 5b                	jmp    ffffffff80000347 <_Z7InitIDTv+0x7d>
ffffffff800002ec:	0f b6 45 ff          	movzbl -0x1(%rbp),%eax
ffffffff800002f0:	48 98                	cltq
ffffffff800002f2:	48 8b 34 c5 4f 28 00 	mov    -0x7fffd7b1(,%rax,8),%rsi
ffffffff800002f9:	80 
ffffffff800002fa:	48 8d 45 ce          	lea    -0x32(%rbp),%rax
ffffffff800002fe:	b9 00 00 00 00       	mov    $0x0,%ecx
ffffffff80000303:	ba 8e 00 00 00       	mov    $0x8e,%edx
ffffffff80000308:	48 89 c7             	mov    %rax,%rdi
ffffffff8000030b:	e8 f2 fe ff ff       	call   ffffffff80000202 <_ZN8IDTEntryC1Emhh>
ffffffff80000310:	0f b6 45 ff          	movzbl -0x1(%rbp),%eax
ffffffff80000314:	48 98                	cltq
ffffffff80000316:	48 c1 e0 04          	shl    $0x4,%rax
ffffffff8000031a:	48 8d 88 c0 2f 00 80 	lea    -0x7fffd040(%rax),%rcx
ffffffff80000321:	48 8b 45 ce          	mov    -0x32(%rbp),%rax
ffffffff80000325:	48 8b 55 d6          	mov    -0x2a(%rbp),%rdx
ffffffff80000329:	48 89 01             	mov    %rax,(%rcx)
ffffffff8000032c:	48 89 51 08          	mov    %rdx,0x8(%rcx)
ffffffff80000330:	0f b6 45 ff          	movzbl -0x1(%rbp),%eax
ffffffff80000334:	48 98                	cltq
ffffffff80000336:	c6 80 e0 3f 00 80 01 	movb   $0x1,-0x7fffc020(%rax)
ffffffff8000033d:	0f b6 45 ff          	movzbl -0x1(%rbp),%eax
ffffffff80000341:	83 c0 01             	add    $0x1,%eax
ffffffff80000344:	88 45 ff             	mov    %al,-0x1(%rbp)
ffffffff80000347:	80 7d ff 1f          	cmpb   $0x1f,-0x1(%rbp)
ffffffff8000034b:	76 9f                	jbe    ffffffff800002ec <_Z7InitIDTv+0x22>
ffffffff8000034d:	c6 45 fe 20          	movb   $0x20,-0x2(%rbp)
ffffffff80000351:	eb 5e                	jmp    ffffffff800003b1 <_Z7InitIDTv+0xe7>
ffffffff80000353:	0f b6 45 fe          	movzbl -0x2(%rbp),%eax
ffffffff80000357:	83 e8 20             	sub    $0x20,%eax
ffffffff8000035a:	48 98                	cltq
ffffffff8000035c:	48 8b 34 c5 4f 29 00 	mov    -0x7fffd6b1(,%rax,8),%rsi
ffffffff80000363:	80 
ffffffff80000364:	48 8d 45 de          	lea    -0x22(%rbp),%rax
ffffffff80000368:	b9 00 00 00 00       	mov    $0x0,%ecx
ffffffff8000036d:	ba 8e 00 00 00       	mov    $0x8e,%edx
ffffffff80000372:	48 89 c7             	mov    %rax,%rdi
ffffffff80000375:	e8 88 fe ff ff       	call   ffffffff80000202 <_ZN8IDTEntryC1Emhh>
ffffffff8000037a:	0f b6 45 fe          	movzbl -0x2(%rbp),%eax
ffffffff8000037e:	48 98                	cltq
ffffffff80000380:	48 c1 e0 04          	shl    $0x4,%rax
ffffffff80000384:	48 8d 88 c0 2f 00 80 	lea    -0x7fffd040(%rax),%rcx
ffffffff8000038b:	48 8b 45 de          	mov    -0x22(%rbp),%rax
ffffffff8000038f:	48 8b 55 e6          	mov    -0x1a(%rbp),%rdx
ffffffff80000393:	48 89 01             	mov    %rax,(%rcx)
ffffffff80000396:	48 89 51 08          	mov    %rdx,0x8(%rcx)
ffffffff8000039a:	0f b6 45 fe          	movzbl -0x2(%rbp),%eax
ffffffff8000039e:	48 98                	cltq
ffffffff800003a0:	c6 80 e0 3f 00 80 01 	movb   $0x1,-0x7fffc020(%rax)
ffffffff800003a7:	0f b6 45 fe          	movzbl -0x2(%rbp),%eax
ffffffff800003ab:	83 c0 01             	add    $0x1,%eax
ffffffff800003ae:	88 45 fe             	mov    %al,-0x2(%rbp)
ffffffff800003b1:	80 7d fe 2f          	cmpb   $0x2f,-0x2(%rbp)
ffffffff800003b5:	76 9c                	jbe    ffffffff80000353 <_Z7InitIDTv+0x89>
ffffffff800003b7:	48 c7 c6 3e 26 00 80 	mov    $0xffffffff8000263e,%rsi
ffffffff800003be:	48 8d 45 ee          	lea    -0x12(%rbp),%rax
ffffffff800003c2:	b9 00 00 00 00       	mov    $0x0,%ecx
ffffffff800003c7:	ba ee 00 00 00       	mov    $0xee,%edx
ffffffff800003cc:	48 89 c7             	mov    %rax,%rdi
ffffffff800003cf:	e8 2e fe ff ff       	call   ffffffff80000202 <_ZN8IDTEntryC1Emhh>
ffffffff800003d4:	48 8b 45 ee          	mov    -0x12(%rbp),%rax
ffffffff800003d8:	48 8b 55 f6          	mov    -0xa(%rbp),%rdx
ffffffff800003dc:	48 89 05 6d 32 00 00 	mov    %rax,0x326d(%rip)        # ffffffff80003650 <_ZL3idt+0x690>
ffffffff800003e3:	48 89 15 6e 32 00 00 	mov    %rdx,0x326e(%rip)        # ffffffff80003658 <_ZL3idt+0x698>
ffffffff800003ea:	c6 05 58 3c 00 00 01 	movb   $0x1,0x3c58(%rip)        # ffffffff80004049 <_ZL7vectors+0x69>
ffffffff800003f1:	0f 01 1d c8 3b 00 00 	lidt   0x3bc8(%rip)        # ffffffff80003fc0 <_ZL4idtr>
ffffffff800003f8:	fb                   	sti
ffffffff800003f9:	90                   	nop
ffffffff800003fa:	c9                   	leave
ffffffff800003fb:	c3                   	ret

ffffffff800003fc <_Z41__static_initialization_and_destruction_0ii>:
ffffffff800003fc:	55                   	push   %rbp
ffffffff800003fd:	48 89 e5             	mov    %rsp,%rbp
ffffffff80000400:	41 54                	push   %r12
ffffffff80000402:	53                   	push   %rbx
ffffffff80000403:	48 83 ec 08          	sub    $0x8,%rsp
ffffffff80000407:	89 7d ec             	mov    %edi,-0x14(%rbp)
ffffffff8000040a:	89 75 e8             	mov    %esi,-0x18(%rbp)
ffffffff8000040d:	83 7d ec 01          	cmpl   $0x1,-0x14(%rbp)
ffffffff80000411:	75 2f                	jne    ffffffff80000442 <_Z41__static_initialization_and_destruction_0ii+0x46>
ffffffff80000413:	81 7d e8 ff ff 00 00 	cmpl   $0xffff,-0x18(%rbp)
ffffffff8000041a:	75 26                	jne    ffffffff80000442 <_Z41__static_initialization_and_destruction_0ii+0x46>
ffffffff8000041c:	48 c7 c0 c0 2f 00 80 	mov    $0xffffffff80002fc0,%rax
ffffffff80000423:	bb ff 00 00 00       	mov    $0xff,%ebx
ffffffff80000428:	49 89 c4             	mov    %rax,%r12
ffffffff8000042b:	eb 10                	jmp    ffffffff8000043d <_Z41__static_initialization_and_destruction_0ii+0x41>
ffffffff8000042d:	4c 89 e7             	mov    %r12,%rdi
ffffffff80000430:	e8 43 fe ff ff       	call   ffffffff80000278 <_ZN8IDTEntryC1Ev>
ffffffff80000435:	49 83 c4 10          	add    $0x10,%r12
ffffffff80000439:	48 83 eb 01          	sub    $0x1,%rbx
ffffffff8000043d:	48 85 db             	test   %rbx,%rbx
ffffffff80000440:	79 eb                	jns    ffffffff8000042d <_Z41__static_initialization_and_destruction_0ii+0x31>
ffffffff80000442:	90                   	nop
ffffffff80000443:	48 83 c4 08          	add    $0x8,%rsp
ffffffff80000447:	5b                   	pop    %rbx
ffffffff80000448:	41 5c                	pop    %r12
ffffffff8000044a:	5d                   	pop    %rbp
ffffffff8000044b:	c3                   	ret

ffffffff8000044c <_GLOBAL__sub_I__ZN8IDTEntryC2Emhh>:
ffffffff8000044c:	55                   	push   %rbp
ffffffff8000044d:	48 89 e5             	mov    %rsp,%rbp
ffffffff80000450:	be ff ff 00 00       	mov    $0xffff,%esi
ffffffff80000455:	bf 01 00 00 00       	mov    $0x1,%edi
ffffffff8000045a:	e8 9d ff ff ff       	call   ffffffff800003fc <_Z41__static_initialization_and_destruction_0ii>
ffffffff8000045f:	5d                   	pop    %rbp
ffffffff80000460:	c3                   	ret

ffffffff80000461 <ISRExceptionHandler>:
ffffffff80000461:	55                   	push   %rbp
ffffffff80000462:	48 89 e5             	mov    %rsp,%rbp
ffffffff80000465:	41 54                	push   %r12
ffffffff80000467:	53                   	push   %rbx
ffffffff80000468:	48 83 ec 20          	sub    $0x20,%rsp
ffffffff8000046c:	48 89 7d d8          	mov    %rdi,-0x28(%rbp)
ffffffff80000470:	48 8b 45 d8          	mov    -0x28(%rbp),%rax
ffffffff80000474:	48 8b 80 98 00 00 00 	mov    0x98(%rax),%rax
ffffffff8000047b:	4c 8b 24 c5 a0 2c 00 	mov    -0x7fffd360(,%rax,8),%r12
ffffffff80000482:	80 
ffffffff80000483:	48 8b 45 d8          	mov    -0x28(%rbp),%rax
ffffffff80000487:	48 8b 98 98 00 00 00 	mov    0x98(%rax),%rbx
ffffffff8000048e:	48 8d 45 ed          	lea    -0x13(%rbp),%rax
ffffffff80000492:	be 00 00 ff 00       	mov    $0xff0000,%esi
ffffffff80000497:	48 89 c7             	mov    %rax,%rdi
ffffffff8000049a:	e8 e9 0c 00 00       	call   ffffffff80001188 <_ZN8Graphics5ColorC1Ej>
ffffffff8000049f:	4c 89 e1             	mov    %r12,%rcx
ffffffff800004a2:	48 89 da             	mov    %rbx,%rdx
ffffffff800004a5:	48 c7 c6 a0 2d 00 80 	mov    $0xffffffff80002da0,%rsi
ffffffff800004ac:	0f b6 7d ed          	movzbl -0x13(%rbp),%edi
ffffffff800004b0:	0f b6 45 ee          	movzbl -0x12(%rbp),%eax
ffffffff800004b4:	48 c1 e0 08          	shl    $0x8,%rax
ffffffff800004b8:	48 09 c7             	or     %rax,%rdi
ffffffff800004bb:	0f b6 45 ef          	movzbl -0x11(%rbp),%eax
ffffffff800004bf:	48 c1 e0 10          	shl    $0x10,%rax
ffffffff800004c3:	48 09 f8             	or     %rdi,%rax
ffffffff800004c6:	48 89 c7             	mov    %rax,%rdi
ffffffff800004c9:	b8 00 00 00 00       	mov    $0x0,%eax
ffffffff800004ce:	e8 2c 0b 00 00       	call   ffffffff80000fff <_ZN8Terminal6PrintfEN8Graphics5ColorEPKcz>
ffffffff800004d3:	fa                   	cli
ffffffff800004d4:	f4                   	hlt
ffffffff800004d5:	eb fc                	jmp    ffffffff800004d3 <ISRExceptionHandler+0x72>
ffffffff800004d7:	90                   	nop

ffffffff800004d8 <_ZN13GDTDescriptorC1Ejthh>:
ffffffff800004d8:	55                   	push   %rbp
ffffffff800004d9:	48 89 e5             	mov    %rsp,%rbp
ffffffff800004dc:	48 83 ec 18          	sub    $0x18,%rsp
ffffffff800004e0:	48 89 7d f8          	mov    %rdi,-0x8(%rbp)
ffffffff800004e4:	89 75 f4             	mov    %esi,-0xc(%rbp)
ffffffff800004e7:	89 d0                	mov    %edx,%eax
ffffffff800004e9:	89 ca                	mov    %ecx,%edx
ffffffff800004eb:	44 89 c1             	mov    %r8d,%ecx
ffffffff800004ee:	66 89 45 f0          	mov    %ax,-0x10(%rbp)
ffffffff800004f2:	89 d0                	mov    %edx,%eax
ffffffff800004f4:	88 45 ec             	mov    %al,-0x14(%rbp)
ffffffff800004f7:	89 c8                	mov    %ecx,%eax
ffffffff800004f9:	88 45 e8             	mov    %al,-0x18(%rbp)
ffffffff800004fc:	8b 45 f4             	mov    -0xc(%rbp),%eax
ffffffff800004ff:	89 c2                	mov    %eax,%edx
ffffffff80000501:	48 8b 45 f8          	mov    -0x8(%rbp),%rax
ffffffff80000505:	66 89 50 02          	mov    %dx,0x2(%rax)
ffffffff80000509:	8b 45 f4             	mov    -0xc(%rbp),%eax
ffffffff8000050c:	c1 e8 10             	shr    $0x10,%eax
ffffffff8000050f:	89 c2                	mov    %eax,%edx
ffffffff80000511:	48 8b 45 f8          	mov    -0x8(%rbp),%rax
ffffffff80000515:	88 50 04             	mov    %dl,0x4(%rax)
ffffffff80000518:	8b 45 f4             	mov    -0xc(%rbp),%eax
ffffffff8000051b:	c1 e8 18             	shr    $0x18,%eax
ffffffff8000051e:	89 c2                	mov    %eax,%edx
ffffffff80000520:	48 8b 45 f8          	mov    -0x8(%rbp),%rax
ffffffff80000524:	88 50 07             	mov    %dl,0x7(%rax)
ffffffff80000527:	48 8b 45 f8          	mov    -0x8(%rbp),%rax
ffffffff8000052b:	0f b7 55 f0          	movzwl -0x10(%rbp),%edx
ffffffff8000052f:	66 89 10             	mov    %dx,(%rax)
ffffffff80000532:	48 8b 45 f8          	mov    -0x8(%rbp),%rax
ffffffff80000536:	0f b6 55 ec          	movzbl -0x14(%rbp),%edx
ffffffff8000053a:	88 50 05             	mov    %dl,0x5(%rax)
ffffffff8000053d:	48 8b 45 f8          	mov    -0x8(%rbp),%rax
ffffffff80000541:	0f b6 55 e8          	movzbl -0x18(%rbp),%edx
ffffffff80000545:	88 50 06             	mov    %dl,0x6(%rax)
ffffffff80000548:	90                   	nop
ffffffff80000549:	c9                   	leave
ffffffff8000054a:	c3                   	ret
ffffffff8000054b:	90                   	nop

ffffffff8000054c <_ZN13GDTDescriptorC1Ev>:
ffffffff8000054c:	55                   	push   %rbp
ffffffff8000054d:	48 89 e5             	mov    %rsp,%rbp
ffffffff80000550:	48 83 ec 08          	sub    $0x8,%rsp
ffffffff80000554:	48 89 7d f8          	mov    %rdi,-0x8(%rbp)
ffffffff80000558:	90                   	nop
ffffffff80000559:	c9                   	leave
ffffffff8000055a:	c3                   	ret

ffffffff8000055b <_Z7InitGDTv>:
ffffffff8000055b:	55                   	push   %rbp
ffffffff8000055c:	48 89 e5             	mov    %rsp,%rbp
ffffffff8000055f:	48 83 ec 40          	sub    $0x40,%rsp
ffffffff80000563:	48 8d 45 c8          	lea    -0x38(%rbp),%rax
ffffffff80000567:	41 b8 00 00 00 00    	mov    $0x0,%r8d
ffffffff8000056d:	b9 00 00 00 00       	mov    $0x0,%ecx
ffffffff80000572:	ba 00 00 00 00       	mov    $0x0,%edx
ffffffff80000577:	be 00 00 00 00       	mov    $0x0,%esi
ffffffff8000057c:	48 89 c7             	mov    %rax,%rdi
ffffffff8000057f:	e8 54 ff ff ff       	call   ffffffff800004d8 <_ZN13GDTDescriptorC1Ejthh>
ffffffff80000584:	48 8b 45 c8          	mov    -0x38(%rbp),%rax
ffffffff80000588:	48 89 05 51 3c 00 00 	mov    %rax,0x3c51(%rip)        # ffffffff800041e0 <gdt>
ffffffff8000058f:	48 8d 45 d0          	lea    -0x30(%rbp),%rax
ffffffff80000593:	41 b8 a0 00 00 00    	mov    $0xa0,%r8d
ffffffff80000599:	b9 9a 00 00 00       	mov    $0x9a,%ecx
ffffffff8000059e:	ba 00 00 00 00       	mov    $0x0,%edx
ffffffff800005a3:	be 00 00 00 00       	mov    $0x0,%esi
ffffffff800005a8:	48 89 c7             	mov    %rax,%rdi
ffffffff800005ab:	e8 28 ff ff ff       	call   ffffffff800004d8 <_ZN13GDTDescriptorC1Ejthh>
ffffffff800005b0:	48 8b 45 d0          	mov    -0x30(%rbp),%rax
ffffffff800005b4:	48 89 05 2d 3c 00 00 	mov    %rax,0x3c2d(%rip)        # ffffffff800041e8 <gdt+0x8>
ffffffff800005bb:	48 8d 45 d8          	lea    -0x28(%rbp),%rax
ffffffff800005bf:	41 b8 c0 00 00 00    	mov    $0xc0,%r8d
ffffffff800005c5:	b9 92 00 00 00       	mov    $0x92,%ecx
ffffffff800005ca:	ba 00 00 00 00       	mov    $0x0,%edx
ffffffff800005cf:	be 00 00 00 00       	mov    $0x0,%esi
ffffffff800005d4:	48 89 c7             	mov    %rax,%rdi
ffffffff800005d7:	e8 fc fe ff ff       	call   ffffffff800004d8 <_ZN13GDTDescriptorC1Ejthh>
ffffffff800005dc:	48 8b 45 d8          	mov    -0x28(%rbp),%rax
ffffffff800005e0:	48 89 05 09 3c 00 00 	mov    %rax,0x3c09(%rip)        # ffffffff800041f0 <gdt+0x10>
ffffffff800005e7:	48 8d 45 e0          	lea    -0x20(%rbp),%rax
ffffffff800005eb:	41 b8 a0 00 00 00    	mov    $0xa0,%r8d
ffffffff800005f1:	b9 fa 00 00 00       	mov    $0xfa,%ecx
ffffffff800005f6:	ba 00 00 00 00       	mov    $0x0,%edx
ffffffff800005fb:	be 00 00 00 00       	mov    $0x0,%esi
ffffffff80000600:	48 89 c7             	mov    %rax,%rdi
ffffffff80000603:	e8 d0 fe ff ff       	call   ffffffff800004d8 <_ZN13GDTDescriptorC1Ejthh>
ffffffff80000608:	48 8b 45 e0          	mov    -0x20(%rbp),%rax
ffffffff8000060c:	48 89 05 e5 3b 00 00 	mov    %rax,0x3be5(%rip)        # ffffffff800041f8 <gdt+0x18>
ffffffff80000613:	48 8d 45 e8          	lea    -0x18(%rbp),%rax
ffffffff80000617:	41 b8 c0 00 00 00    	mov    $0xc0,%r8d
ffffffff8000061d:	b9 f2 00 00 00       	mov    $0xf2,%ecx
ffffffff80000622:	ba 00 00 00 00       	mov    $0x0,%edx
ffffffff80000627:	be 00 00 00 00       	mov    $0x0,%esi
ffffffff8000062c:	48 89 c7             	mov    %rax,%rdi
ffffffff8000062f:	e8 a4 fe ff ff       	call   ffffffff800004d8 <_ZN13GDTDescriptorC1Ejthh>
ffffffff80000634:	48 8b 45 e8          	mov    -0x18(%rbp),%rax
ffffffff80000638:	48 89 05 c1 3b 00 00 	mov    %rax,0x3bc1(%rip)        # ffffffff80004200 <gdt+0x20>
ffffffff8000063f:	48 8d 45 f0          	lea    -0x10(%rbp),%rax
ffffffff80000643:	41 b8 00 00 00 00    	mov    $0x0,%r8d
ffffffff80000649:	b9 00 00 00 00       	mov    $0x0,%ecx
ffffffff8000064e:	ba 00 00 00 00       	mov    $0x0,%edx
ffffffff80000653:	be 00 00 00 00       	mov    $0x0,%esi
ffffffff80000658:	48 89 c7             	mov    %rax,%rdi
ffffffff8000065b:	e8 78 fe ff ff       	call   ffffffff800004d8 <_ZN13GDTDescriptorC1Ejthh>
ffffffff80000660:	48 8b 45 f0          	mov    -0x10(%rbp),%rax
ffffffff80000664:	48 89 05 9d 3b 00 00 	mov    %rax,0x3b9d(%rip)        # ffffffff80004208 <gdt+0x28>
ffffffff8000066b:	48 8d 45 f8          	lea    -0x8(%rbp),%rax
ffffffff8000066f:	41 b8 00 00 00 00    	mov    $0x0,%r8d
ffffffff80000675:	b9 00 00 00 00       	mov    $0x0,%ecx
ffffffff8000067a:	ba 00 00 00 00       	mov    $0x0,%edx
ffffffff8000067f:	be 00 00 00 00       	mov    $0x0,%esi
ffffffff80000684:	48 89 c7             	mov    %rax,%rdi
ffffffff80000687:	e8 4c fe ff ff       	call   ffffffff800004d8 <_ZN13GDTDescriptorC1Ejthh>
ffffffff8000068c:	48 8b 45 f8          	mov    -0x8(%rbp),%rax
ffffffff80000690:	48 89 05 79 3b 00 00 	mov    %rax,0x3b79(%rip)        # ffffffff80004210 <gdt+0x30>
ffffffff80000697:	66 c7 05 78 3b 00 00 	movw   $0x37,0x3b78(%rip)        # ffffffff80004218 <_ZL4gdtr>
ffffffff8000069e:	37 00 
ffffffff800006a0:	48 c7 05 6f 3b 00 00 	movq   $0xffffffff800041e0,0x3b6f(%rip)        # ffffffff8000421a <_ZL4gdtr+0x2>
ffffffff800006a7:	e0 41 00 80 
ffffffff800006ab:	48 c7 c7 18 42 00 80 	mov    $0xffffffff80004218,%rdi
ffffffff800006b2:	e8 19 23 00 00       	call   ffffffff800029d0 <install_gdt>
ffffffff800006b7:	90                   	nop
ffffffff800006b8:	c9                   	leave
ffffffff800006b9:	c3                   	ret

ffffffff800006ba <_Z41__static_initialization_and_destruction_0ii>:
ffffffff800006ba:	55                   	push   %rbp
ffffffff800006bb:	48 89 e5             	mov    %rsp,%rbp
ffffffff800006be:	41 54                	push   %r12
ffffffff800006c0:	53                   	push   %rbx
ffffffff800006c1:	48 83 ec 08          	sub    $0x8,%rsp
ffffffff800006c5:	89 7d ec             	mov    %edi,-0x14(%rbp)
ffffffff800006c8:	89 75 e8             	mov    %esi,-0x18(%rbp)
ffffffff800006cb:	83 7d ec 01          	cmpl   $0x1,-0x14(%rbp)
ffffffff800006cf:	75 2f                	jne    ffffffff80000700 <_Z41__static_initialization_and_destruction_0ii+0x46>
ffffffff800006d1:	81 7d e8 ff ff 00 00 	cmpl   $0xffff,-0x18(%rbp)
ffffffff800006d8:	75 26                	jne    ffffffff80000700 <_Z41__static_initialization_and_destruction_0ii+0x46>
ffffffff800006da:	48 c7 c0 e0 41 00 80 	mov    $0xffffffff800041e0,%rax
ffffffff800006e1:	bb 06 00 00 00       	mov    $0x6,%ebx
ffffffff800006e6:	49 89 c4             	mov    %rax,%r12
ffffffff800006e9:	eb 10                	jmp    ffffffff800006fb <_Z41__static_initialization_and_destruction_0ii+0x41>
ffffffff800006eb:	4c 89 e7             	mov    %r12,%rdi
ffffffff800006ee:	e8 59 fe ff ff       	call   ffffffff8000054c <_ZN13GDTDescriptorC1Ev>
ffffffff800006f3:	49 83 c4 08          	add    $0x8,%r12
ffffffff800006f7:	48 83 eb 01          	sub    $0x1,%rbx
ffffffff800006fb:	48 85 db             	test   %rbx,%rbx
ffffffff800006fe:	79 eb                	jns    ffffffff800006eb <_Z41__static_initialization_and_destruction_0ii+0x31>
ffffffff80000700:	90                   	nop
ffffffff80000701:	48 83 c4 08          	add    $0x8,%rsp
ffffffff80000705:	5b                   	pop    %rbx
ffffffff80000706:	41 5c                	pop    %r12
ffffffff80000708:	5d                   	pop    %rbp
ffffffff80000709:	c3                   	ret

ffffffff8000070a <_GLOBAL__sub_I__ZN13GDTDescriptorC2Ejthh>:
ffffffff8000070a:	55                   	push   %rbp
ffffffff8000070b:	48 89 e5             	mov    %rsp,%rbp
ffffffff8000070e:	be ff ff 00 00       	mov    $0xffff,%esi
ffffffff80000713:	bf 01 00 00 00       	mov    $0x1,%edi
ffffffff80000718:	e8 9d ff ff ff       	call   ffffffff800006ba <_Z41__static_initialization_and_destruction_0ii>
ffffffff8000071d:	5d                   	pop    %rbp
ffffffff8000071e:	c3                   	ret

ffffffff8000071f <_Z6memcpyPvS_m>:
ffffffff8000071f:	55                   	push   %rbp
ffffffff80000720:	48 89 e5             	mov    %rsp,%rbp
ffffffff80000723:	48 83 ec 28          	sub    $0x28,%rsp
ffffffff80000727:	48 89 7d e8          	mov    %rdi,-0x18(%rbp)
ffffffff8000072b:	48 89 75 e0          	mov    %rsi,-0x20(%rbp)
ffffffff8000072f:	48 89 55 d8          	mov    %rdx,-0x28(%rbp)
ffffffff80000733:	48 c7 45 f8 00 00 00 	movq   $0x0,-0x8(%rbp)
ffffffff8000073a:	00 
ffffffff8000073b:	eb 20                	jmp    ffffffff8000075d <_Z6memcpyPvS_m+0x3e>
ffffffff8000073d:	48 8b 55 e0          	mov    -0x20(%rbp),%rdx
ffffffff80000741:	48 8b 45 f8          	mov    -0x8(%rbp),%rax
ffffffff80000745:	48 01 d0             	add    %rdx,%rax
ffffffff80000748:	48 8b 4d e8          	mov    -0x18(%rbp),%rcx
ffffffff8000074c:	48 8b 55 f8          	mov    -0x8(%rbp),%rdx
ffffffff80000750:	48 01 ca             	add    %rcx,%rdx
ffffffff80000753:	0f b6 00             	movzbl (%rax),%eax
ffffffff80000756:	88 02                	mov    %al,(%rdx)
ffffffff80000758:	48 83 45 f8 01       	addq   $0x1,-0x8(%rbp)
ffffffff8000075d:	48 8b 45 f8          	mov    -0x8(%rbp),%rax
ffffffff80000761:	48 3b 45 d8          	cmp    -0x28(%rbp),%rax
ffffffff80000765:	72 d6                	jb     ffffffff8000073d <_Z6memcpyPvS_m+0x1e>
ffffffff80000767:	90                   	nop
ffffffff80000768:	90                   	nop
ffffffff80000769:	c9                   	leave
ffffffff8000076a:	c3                   	ret

ffffffff8000076b <_Z7InitTSSv>:
ffffffff8000076b:	55                   	push   %rbp
ffffffff8000076c:	48 89 e5             	mov    %rsp,%rbp
ffffffff8000076f:	48 83 ec 20          	sub    $0x20,%rsp
ffffffff80000773:	e8 79 11 00 00       	call   ffffffff800018f1 <_ZN3PMM7GetPageEv>
ffffffff80000778:	48 89 45 f0          	mov    %rax,-0x10(%rbp)
ffffffff8000077c:	48 ba 00 00 00 00 00 	movabs $0xffff800000000000,%rdx
ffffffff80000783:	80 ff ff 
ffffffff80000786:	48 8b 45 f0          	mov    -0x10(%rbp),%rax
ffffffff8000078a:	48 01 d0             	add    %rdx,%rax
ffffffff8000078d:	48 05 ff 0f 00 00    	add    $0xfff,%rax
ffffffff80000793:	48 89 05 aa 3a 00 00 	mov    %rax,0x3aaa(%rip)        # ffffffff80004244 <tss+0x4>
ffffffff8000079a:	48 c7 c0 40 42 00 80 	mov    $0xffffffff80004240,%rax
ffffffff800007a1:	89 45 fc             	mov    %eax,-0x4(%rbp)
ffffffff800007a4:	48 c7 c0 40 42 00 80 	mov    $0xffffffff80004240,%rax
ffffffff800007ab:	48 c1 e8 20          	shr    $0x20,%rax
ffffffff800007af:	89 45 e4             	mov    %eax,-0x1c(%rbp)
ffffffff800007b2:	8b 75 fc             	mov    -0x4(%rbp),%esi
ffffffff800007b5:	48 8d 45 e8          	lea    -0x18(%rbp),%rax
ffffffff800007b9:	41 b8 00 00 00 00    	mov    $0x0,%r8d
ffffffff800007bf:	b9 89 00 00 00       	mov    $0x89,%ecx
ffffffff800007c4:	ba 68 00 00 00       	mov    $0x68,%edx
ffffffff800007c9:	48 89 c7             	mov    %rax,%rdi
ffffffff800007cc:	e8 07 fd ff ff       	call   ffffffff800004d8 <_ZN13GDTDescriptorC1Ejthh>
ffffffff800007d1:	48 8b 45 e8          	mov    -0x18(%rbp),%rax
ffffffff800007d5:	48 89 05 2c 3a 00 00 	mov    %rax,0x3a2c(%rip)        # ffffffff80004208 <gdt+0x28>
ffffffff800007dc:	48 8d 45 e4          	lea    -0x1c(%rbp),%rax
ffffffff800007e0:	ba 04 00 00 00       	mov    $0x4,%edx
ffffffff800007e5:	48 89 c6             	mov    %rax,%rsi
ffffffff800007e8:	48 c7 c7 10 42 00 80 	mov    $0xffffffff80004210,%rdi
ffffffff800007ef:	e8 2b ff ff ff       	call   ffffffff8000071f <_Z6memcpyPvS_m>
ffffffff800007f4:	e8 f7 21 00 00       	call   ffffffff800029f0 <install_tss>
ffffffff800007f9:	90                   	nop
ffffffff800007fa:	c9                   	leave
ffffffff800007fb:	c3                   	ret

ffffffff800007fc <_Z6StrLenPc>:
ffffffff800007fc:	55                   	push   %rbp
ffffffff800007fd:	48 89 e5             	mov    %rsp,%rbp
ffffffff80000800:	48 83 ec 18          	sub    $0x18,%rsp
ffffffff80000804:	48 89 7d e8          	mov    %rdi,-0x18(%rbp)
ffffffff80000808:	c7 45 fc 00 00 00 00 	movl   $0x0,-0x4(%rbp)
ffffffff8000080f:	eb 04                	jmp    ffffffff80000815 <_Z6StrLenPc+0x19>
ffffffff80000811:	83 45 fc 01          	addl   $0x1,-0x4(%rbp)
ffffffff80000815:	8b 55 fc             	mov    -0x4(%rbp),%edx
ffffffff80000818:	48 8b 45 e8          	mov    -0x18(%rbp),%rax
ffffffff8000081c:	48 01 d0             	add    %rdx,%rax
ffffffff8000081f:	0f b6 00             	movzbl (%rax),%eax
ffffffff80000822:	84 c0                	test   %al,%al
ffffffff80000824:	75 eb                	jne    ffffffff80000811 <_Z6StrLenPc+0x15>
ffffffff80000826:	8b 45 fc             	mov    -0x4(%rbp),%eax
ffffffff80000829:	c9                   	leave
ffffffff8000082a:	c3                   	ret

ffffffff8000082b <_Z4IToAlPci>:
ffffffff8000082b:	55                   	push   %rbp
ffffffff8000082c:	48 89 e5             	mov    %rsp,%rbp
ffffffff8000082f:	48 83 ec 68          	sub    $0x68,%rsp
ffffffff80000833:	48 89 7d a8          	mov    %rdi,-0x58(%rbp)
ffffffff80000837:	48 89 75 a0          	mov    %rsi,-0x60(%rbp)
ffffffff8000083b:	89 55 9c             	mov    %edx,-0x64(%rbp)
ffffffff8000083e:	48 8d 45 b8          	lea    -0x48(%rbp),%rax
ffffffff80000842:	48 89 45 f8          	mov    %rax,-0x8(%rbp)
ffffffff80000846:	83 7d 9c 0a          	cmpl   $0xa,-0x64(%rbp)
ffffffff8000084a:	75 0e                	jne    ffffffff8000085a <_Z4IToAlPci+0x2f>
ffffffff8000084c:	48 83 7d a8 00       	cmpq   $0x0,-0x58(%rbp)
ffffffff80000851:	79 07                	jns    ffffffff8000085a <_Z4IToAlPci+0x2f>
ffffffff80000853:	b8 01 00 00 00       	mov    $0x1,%eax
ffffffff80000858:	eb 05                	jmp    ffffffff8000085f <_Z4IToAlPci+0x34>
ffffffff8000085a:	b8 00 00 00 00       	mov    $0x0,%eax
ffffffff8000085f:	0f b6 c0             	movzbl %al,%eax
ffffffff80000862:	48 89 45 e0          	mov    %rax,-0x20(%rbp)
ffffffff80000866:	48 83 7d e0 00       	cmpq   $0x0,-0x20(%rbp)
ffffffff8000086b:	74 0d                	je     ffffffff8000087a <_Z4IToAlPci+0x4f>
ffffffff8000086d:	48 8b 45 a8          	mov    -0x58(%rbp),%rax
ffffffff80000871:	48 f7 d8             	neg    %rax
ffffffff80000874:	48 89 45 f0          	mov    %rax,-0x10(%rbp)
ffffffff80000878:	eb 67                	jmp    ffffffff800008e1 <_Z4IToAlPci+0xb6>
ffffffff8000087a:	48 8b 45 a8          	mov    -0x58(%rbp),%rax
ffffffff8000087e:	48 89 45 f0          	mov    %rax,-0x10(%rbp)
ffffffff80000882:	eb 5d                	jmp    ffffffff800008e1 <_Z4IToAlPci+0xb6>
ffffffff80000884:	8b 45 9c             	mov    -0x64(%rbp),%eax
ffffffff80000887:	48 63 c8             	movslq %eax,%rcx
ffffffff8000088a:	48 8b 45 f0          	mov    -0x10(%rbp),%rax
ffffffff8000088e:	48 99                	cqto
ffffffff80000890:	48 f7 f9             	idiv   %rcx
ffffffff80000893:	48 89 55 d8          	mov    %rdx,-0x28(%rbp)
ffffffff80000897:	8b 45 9c             	mov    -0x64(%rbp),%eax
ffffffff8000089a:	48 63 f0             	movslq %eax,%rsi
ffffffff8000089d:	48 8b 45 f0          	mov    -0x10(%rbp),%rax
ffffffff800008a1:	48 99                	cqto
ffffffff800008a3:	48 f7 fe             	idiv   %rsi
ffffffff800008a6:	48 89 45 f0          	mov    %rax,-0x10(%rbp)
ffffffff800008aa:	48 83 7d d8 09       	cmpq   $0x9,-0x28(%rbp)
ffffffff800008af:	7f 19                	jg     ffffffff800008ca <_Z4IToAlPci+0x9f>
ffffffff800008b1:	48 8b 45 d8          	mov    -0x28(%rbp),%rax
ffffffff800008b5:	83 c0 30             	add    $0x30,%eax
ffffffff800008b8:	89 c1                	mov    %eax,%ecx
ffffffff800008ba:	48 8b 45 f8          	mov    -0x8(%rbp),%rax
ffffffff800008be:	48 8d 50 01          	lea    0x1(%rax),%rdx
ffffffff800008c2:	48 89 55 f8          	mov    %rdx,-0x8(%rbp)
ffffffff800008c6:	88 08                	mov    %cl,(%rax)
ffffffff800008c8:	eb 17                	jmp    ffffffff800008e1 <_Z4IToAlPci+0xb6>
ffffffff800008ca:	48 8b 45 d8          	mov    -0x28(%rbp),%rax
ffffffff800008ce:	83 c0 37             	add    $0x37,%eax
ffffffff800008d1:	89 c1                	mov    %eax,%ecx
ffffffff800008d3:	48 8b 45 f8          	mov    -0x8(%rbp),%rax
ffffffff800008d7:	48 8d 50 01          	lea    0x1(%rax),%rdx
ffffffff800008db:	48 89 55 f8          	mov    %rdx,-0x8(%rbp)
ffffffff800008df:	88 08                	mov    %cl,(%rax)
ffffffff800008e1:	48 83 7d f0 00       	cmpq   $0x0,-0x10(%rbp)
ffffffff800008e6:	75 9c                	jne    ffffffff80000884 <_Z4IToAlPci+0x59>
ffffffff800008e8:	48 8d 45 b8          	lea    -0x48(%rbp),%rax
ffffffff800008ec:	48 39 45 f8          	cmp    %rax,-0x8(%rbp)
ffffffff800008f0:	74 92                	je     ffffffff80000884 <_Z4IToAlPci+0x59>
ffffffff800008f2:	48 8d 55 b8          	lea    -0x48(%rbp),%rdx
ffffffff800008f6:	48 8b 45 f8          	mov    -0x8(%rbp),%rax
ffffffff800008fa:	48 29 d0             	sub    %rdx,%rax
ffffffff800008fd:	48 89 45 e8          	mov    %rax,-0x18(%rbp)
ffffffff80000901:	48 83 7d e0 00       	cmpq   $0x0,-0x20(%rbp)
ffffffff80000906:	74 30                	je     ffffffff80000938 <_Z4IToAlPci+0x10d>
ffffffff80000908:	48 8b 45 a0          	mov    -0x60(%rbp),%rax
ffffffff8000090c:	48 8d 50 01          	lea    0x1(%rax),%rdx
ffffffff80000910:	48 89 55 a0          	mov    %rdx,-0x60(%rbp)
ffffffff80000914:	c6 00 2d             	movb   $0x2d,(%rax)
ffffffff80000917:	48 83 45 e8 01       	addq   $0x1,-0x18(%rbp)
ffffffff8000091c:	eb 1a                	jmp    ffffffff80000938 <_Z4IToAlPci+0x10d>
ffffffff8000091e:	48 83 6d f8 01       	subq   $0x1,-0x8(%rbp)
ffffffff80000923:	48 8b 45 f8          	mov    -0x8(%rbp),%rax
ffffffff80000927:	0f b6 10             	movzbl (%rax),%edx
ffffffff8000092a:	48 8b 45 a0          	mov    -0x60(%rbp),%rax
ffffffff8000092e:	48 8d 48 01          	lea    0x1(%rax),%rcx
ffffffff80000932:	48 89 4d a0          	mov    %rcx,-0x60(%rbp)
ffffffff80000936:	88 10                	mov    %dl,(%rax)
ffffffff80000938:	48 8d 45 b8          	lea    -0x48(%rbp),%rax
ffffffff8000093c:	48 39 45 f8          	cmp    %rax,-0x8(%rbp)
ffffffff80000940:	77 dc                	ja     ffffffff8000091e <_Z4IToAlPci+0xf3>
ffffffff80000942:	48 8b 45 e8          	mov    -0x18(%rbp),%rax
ffffffff80000946:	c9                   	leave
ffffffff80000947:	c3                   	ret

ffffffff80000948 <_ZN8Terminal4InitEv>:
ffffffff80000948:	55                   	push   %rbp
ffffffff80000949:	48 89 e5             	mov    %rsp,%rbp
ffffffff8000094c:	48 8b 05 7d 39 00 00 	mov    0x397d(%rip),%rax        # ffffffff800042d0 <_ZN8Graphics11framebufferE+0x10>
ffffffff80000953:	89 05 57 39 00 00    	mov    %eax,0x3957(%rip)        # ffffffff800042b0 <_ZN8TerminalL6maxColE>
ffffffff80000959:	48 8b 05 78 39 00 00 	mov    0x3978(%rip),%rax        # ffffffff800042d8 <_ZN8Graphics11framebufferE+0x18>
ffffffff80000960:	89 05 4e 39 00 00    	mov    %eax,0x394e(%rip)        # ffffffff800042b4 <_ZN8TerminalL6maxRowE>
ffffffff80000966:	90                   	nop
ffffffff80000967:	5d                   	pop    %rbp
ffffffff80000968:	c3                   	ret

ffffffff80000969 <_ZN8Terminal7PutCharEciiN8Graphics5ColorE>:
ffffffff80000969:	55                   	push   %rbp
ffffffff8000096a:	48 89 e5             	mov    %rsp,%rbp
ffffffff8000096d:	48 83 ec 40          	sub    $0x40,%rsp
ffffffff80000971:	89 f8                	mov    %edi,%eax
ffffffff80000973:	89 75 d8             	mov    %esi,-0x28(%rbp)
ffffffff80000976:	89 55 d4             	mov    %edx,-0x2c(%rbp)
ffffffff80000979:	48 89 4d cc          	mov    %rcx,-0x34(%rbp)
ffffffff8000097d:	88 45 dc             	mov    %al,-0x24(%rbp)
ffffffff80000980:	bf 00 00 00 00       	mov    $0x0,%edi
ffffffff80000985:	e8 6e 1b 00 00       	call   ffffffff800024f8 <_Z9GetModulei>
ffffffff8000098a:	48 8b 00             	mov    (%rax),%rax
ffffffff8000098d:	48 89 45 e8          	mov    %rax,-0x18(%rbp)
ffffffff80000991:	0f be 45 dc          	movsbl -0x24(%rbp),%eax
ffffffff80000995:	c1 e0 03             	shl    $0x3,%eax
ffffffff80000998:	89 45 fc             	mov    %eax,-0x4(%rbp)
ffffffff8000099b:	c7 45 f8 00 00 00 00 	movl   $0x0,-0x8(%rbp)
ffffffff800009a2:	eb 7f                	jmp    ffffffff80000a23 <_ZN8Terminal7PutCharEciiN8Graphics5ColorE+0xba>
ffffffff800009a4:	8b 45 fc             	mov    -0x4(%rbp),%eax
ffffffff800009a7:	48 63 d0             	movslq %eax,%rdx
ffffffff800009aa:	48 8b 45 e8          	mov    -0x18(%rbp),%rax
ffffffff800009ae:	48 01 d0             	add    %rdx,%rax
ffffffff800009b1:	0f b6 00             	movzbl (%rax),%eax
ffffffff800009b4:	88 45 e7             	mov    %al,-0x19(%rbp)
ffffffff800009b7:	c7 45 f4 00 00 00 00 	movl   $0x0,-0xc(%rbp)
ffffffff800009be:	eb 55                	jmp    ffffffff80000a15 <_ZN8Terminal7PutCharEciiN8Graphics5ColorE+0xac>
ffffffff800009c0:	0f b6 55 e7          	movzbl -0x19(%rbp),%edx
ffffffff800009c4:	b8 08 00 00 00       	mov    $0x8,%eax
ffffffff800009c9:	2b 45 f4             	sub    -0xc(%rbp),%eax
ffffffff800009cc:	89 c1                	mov    %eax,%ecx
ffffffff800009ce:	d3 fa                	sar    %cl,%edx
ffffffff800009d0:	89 d0                	mov    %edx,%eax
ffffffff800009d2:	83 e0 01             	and    $0x1,%eax
ffffffff800009d5:	85 c0                	test   %eax,%eax
ffffffff800009d7:	74 38                	je     ffffffff80000a11 <_ZN8Terminal7PutCharEciiN8Graphics5ColorE+0xa8>
ffffffff800009d9:	8b 55 f8             	mov    -0x8(%rbp),%edx
ffffffff800009dc:	8b 45 d4             	mov    -0x2c(%rbp),%eax
ffffffff800009df:	01 d0                	add    %edx,%eax
ffffffff800009e1:	89 c6                	mov    %eax,%esi
ffffffff800009e3:	8b 55 f4             	mov    -0xc(%rbp),%edx
ffffffff800009e6:	8b 45 d8             	mov    -0x28(%rbp),%eax
ffffffff800009e9:	01 d0                	add    %edx,%eax
ffffffff800009eb:	89 c1                	mov    %eax,%ecx
ffffffff800009ed:	0f b6 55 cc          	movzbl -0x34(%rbp),%edx
ffffffff800009f1:	0f b6 45 cd          	movzbl -0x33(%rbp),%eax
ffffffff800009f5:	48 c1 e0 08          	shl    $0x8,%rax
ffffffff800009f9:	48 09 c2             	or     %rax,%rdx
ffffffff800009fc:	0f b6 45 ce          	movzbl -0x32(%rbp),%eax
ffffffff80000a00:	48 c1 e0 10          	shl    $0x10,%rax
ffffffff80000a04:	48 09 d0             	or     %rdx,%rax
ffffffff80000a07:	48 89 c2             	mov    %rax,%rdx
ffffffff80000a0a:	89 cf                	mov    %ecx,%edi
ffffffff80000a0c:	e8 92 08 00 00       	call   ffffffff800012a3 <_ZN8Graphics8PutPixelEjjNS_5ColorE>
ffffffff80000a11:	83 45 f4 01          	addl   $0x1,-0xc(%rbp)
ffffffff80000a15:	83 7d f4 07          	cmpl   $0x7,-0xc(%rbp)
ffffffff80000a19:	7e a5                	jle    ffffffff800009c0 <_ZN8Terminal7PutCharEciiN8Graphics5ColorE+0x57>
ffffffff80000a1b:	83 45 fc 01          	addl   $0x1,-0x4(%rbp)
ffffffff80000a1f:	83 45 f8 01          	addl   $0x1,-0x8(%rbp)
ffffffff80000a23:	0f be 45 dc          	movsbl -0x24(%rbp),%eax
ffffffff80000a27:	83 c0 01             	add    $0x1,%eax
ffffffff80000a2a:	c1 e0 03             	shl    $0x3,%eax
ffffffff80000a2d:	39 45 fc             	cmp    %eax,-0x4(%rbp)
ffffffff80000a30:	0f 8c 6e ff ff ff    	jl     ffffffff800009a4 <_ZN8Terminal7PutCharEciiN8Graphics5ColorE+0x3b>
ffffffff80000a36:	90                   	nop
ffffffff80000a37:	90                   	nop
ffffffff80000a38:	c9                   	leave
ffffffff80000a39:	c3                   	ret

ffffffff80000a3a <_ZN8Terminal7PutCharEcN8Graphics5ColorE>:
ffffffff80000a3a:	55                   	push   %rbp
ffffffff80000a3b:	48 89 e5             	mov    %rsp,%rbp
ffffffff80000a3e:	48 83 ec 10          	sub    $0x10,%rsp
ffffffff80000a42:	89 f8                	mov    %edi,%eax
ffffffff80000a44:	48 89 75 f4          	mov    %rsi,-0xc(%rbp)
ffffffff80000a48:	88 45 fc             	mov    %al,-0x4(%rbp)
ffffffff80000a4b:	0f be 45 fc          	movsbl -0x4(%rbp),%eax
ffffffff80000a4f:	83 f8 0a             	cmp    $0xa,%eax
ffffffff80000a52:	75 1b                	jne    ffffffff80000a6f <_ZN8Terminal7PutCharEcN8Graphics5ColorE+0x35>
ffffffff80000a54:	c7 05 4a 38 00 00 00 	movl   $0x0,0x384a(%rip)        # ffffffff800042a8 <_ZN8TerminalL3colE>
ffffffff80000a5b:	00 00 00 
ffffffff80000a5e:	8b 05 48 38 00 00    	mov    0x3848(%rip),%eax        # ffffffff800042ac <_ZN8TerminalL3rowE>
ffffffff80000a64:	83 c0 08             	add    $0x8,%eax
ffffffff80000a67:	89 05 3f 38 00 00    	mov    %eax,0x383f(%rip)        # ffffffff800042ac <_ZN8TerminalL3rowE>
ffffffff80000a6d:	eb 73                	jmp    ffffffff80000ae2 <_ZN8Terminal7PutCharEcN8Graphics5ColorE+0xa8>
ffffffff80000a6f:	8b 05 37 38 00 00    	mov    0x3837(%rip),%eax        # ffffffff800042ac <_ZN8TerminalL3rowE>
ffffffff80000a75:	89 c7                	mov    %eax,%edi
ffffffff80000a77:	8b 05 2b 38 00 00    	mov    0x382b(%rip),%eax        # ffffffff800042a8 <_ZN8TerminalL3colE>
ffffffff80000a7d:	89 c6                	mov    %eax,%esi
ffffffff80000a7f:	0f be 45 fc          	movsbl -0x4(%rbp),%eax
ffffffff80000a83:	0f b6 4d f4          	movzbl -0xc(%rbp),%ecx
ffffffff80000a87:	0f b6 55 f5          	movzbl -0xb(%rbp),%edx
ffffffff80000a8b:	48 c1 e2 08          	shl    $0x8,%rdx
ffffffff80000a8f:	48 09 d1             	or     %rdx,%rcx
ffffffff80000a92:	0f b6 55 f6          	movzbl -0xa(%rbp),%edx
ffffffff80000a96:	48 c1 e2 10          	shl    $0x10,%rdx
ffffffff80000a9a:	48 09 ca             	or     %rcx,%rdx
ffffffff80000a9d:	48 89 d1             	mov    %rdx,%rcx
ffffffff80000aa0:	89 fa                	mov    %edi,%edx
ffffffff80000aa2:	89 c7                	mov    %eax,%edi
ffffffff80000aa4:	e8 c0 fe ff ff       	call   ffffffff80000969 <_ZN8Terminal7PutCharEciiN8Graphics5ColorE>
ffffffff80000aa9:	8b 05 f9 37 00 00    	mov    0x37f9(%rip),%eax        # ffffffff800042a8 <_ZN8TerminalL3colE>
ffffffff80000aaf:	83 c0 08             	add    $0x8,%eax
ffffffff80000ab2:	89 05 f0 37 00 00    	mov    %eax,0x37f0(%rip)        # ffffffff800042a8 <_ZN8TerminalL3colE>
ffffffff80000ab8:	8b 15 ea 37 00 00    	mov    0x37ea(%rip),%edx        # ffffffff800042a8 <_ZN8TerminalL3colE>
ffffffff80000abe:	8b 05 ec 37 00 00    	mov    0x37ec(%rip),%eax        # ffffffff800042b0 <_ZN8TerminalL6maxColE>
ffffffff80000ac4:	39 c2                	cmp    %eax,%edx
ffffffff80000ac6:	72 19                	jb     ffffffff80000ae1 <_ZN8Terminal7PutCharEcN8Graphics5ColorE+0xa7>
ffffffff80000ac8:	c7 05 d6 37 00 00 00 	movl   $0x0,0x37d6(%rip)        # ffffffff800042a8 <_ZN8TerminalL3colE>
ffffffff80000acf:	00 00 00 
ffffffff80000ad2:	8b 05 d4 37 00 00    	mov    0x37d4(%rip),%eax        # ffffffff800042ac <_ZN8TerminalL3rowE>
ffffffff80000ad8:	83 c0 08             	add    $0x8,%eax
ffffffff80000adb:	89 05 cb 37 00 00    	mov    %eax,0x37cb(%rip)        # ffffffff800042ac <_ZN8TerminalL3rowE>
ffffffff80000ae1:	90                   	nop
ffffffff80000ae2:	90                   	nop
ffffffff80000ae3:	c9                   	leave
ffffffff80000ae4:	c3                   	ret

ffffffff80000ae5 <_ZN8Terminal9PutStringEPcjN8Graphics5ColorE>:
ffffffff80000ae5:	55                   	push   %rbp
ffffffff80000ae6:	48 89 e5             	mov    %rsp,%rbp
ffffffff80000ae9:	48 83 ec 30          	sub    $0x30,%rsp
ffffffff80000aed:	48 89 7d e8          	mov    %rdi,-0x18(%rbp)
ffffffff80000af1:	89 75 e4             	mov    %esi,-0x1c(%rbp)
ffffffff80000af4:	48 89 55 dc          	mov    %rdx,-0x24(%rbp)
ffffffff80000af8:	c7 45 fc 00 00 00 00 	movl   $0x0,-0x4(%rbp)
ffffffff80000aff:	eb 38                	jmp    ffffffff80000b39 <_ZN8Terminal9PutStringEPcjN8Graphics5ColorE+0x54>
ffffffff80000b01:	8b 55 fc             	mov    -0x4(%rbp),%edx
ffffffff80000b04:	48 8b 45 e8          	mov    -0x18(%rbp),%rax
ffffffff80000b08:	48 01 d0             	add    %rdx,%rax
ffffffff80000b0b:	0f b6 00             	movzbl (%rax),%eax
ffffffff80000b0e:	0f be c0             	movsbl %al,%eax
ffffffff80000b11:	0f b6 4d dc          	movzbl -0x24(%rbp),%ecx
ffffffff80000b15:	0f b6 55 dd          	movzbl -0x23(%rbp),%edx
ffffffff80000b19:	48 c1 e2 08          	shl    $0x8,%rdx
ffffffff80000b1d:	48 09 d1             	or     %rdx,%rcx
ffffffff80000b20:	0f b6 55 de          	movzbl -0x22(%rbp),%edx
ffffffff80000b24:	48 c1 e2 10          	shl    $0x10,%rdx
ffffffff80000b28:	48 09 ca             	or     %rcx,%rdx
ffffffff80000b2b:	48 89 d6             	mov    %rdx,%rsi
ffffffff80000b2e:	89 c7                	mov    %eax,%edi
ffffffff80000b30:	e8 05 ff ff ff       	call   ffffffff80000a3a <_ZN8Terminal7PutCharEcN8Graphics5ColorE>
ffffffff80000b35:	83 45 fc 01          	addl   $0x1,-0x4(%rbp)
ffffffff80000b39:	8b 45 fc             	mov    -0x4(%rbp),%eax
ffffffff80000b3c:	3b 45 e4             	cmp    -0x1c(%rbp),%eax
ffffffff80000b3f:	72 c0                	jb     ffffffff80000b01 <_ZN8Terminal9PutStringEPcjN8Graphics5ColorE+0x1c>
ffffffff80000b41:	90                   	nop
ffffffff80000b42:	90                   	nop
ffffffff80000b43:	c9                   	leave
ffffffff80000b44:	c3                   	ret

ffffffff80000b45 <_ZN8Terminal5PrintEPcN8Graphics5ColorE>:
ffffffff80000b45:	55                   	push   %rbp
ffffffff80000b46:	48 89 e5             	mov    %rsp,%rbp
ffffffff80000b49:	48 83 ec 10          	sub    $0x10,%rsp
ffffffff80000b4d:	48 89 7d f8          	mov    %rdi,-0x8(%rbp)
ffffffff80000b51:	48 89 75 f0          	mov    %rsi,-0x10(%rbp)
ffffffff80000b55:	48 8b 45 f8          	mov    -0x8(%rbp),%rax
ffffffff80000b59:	48 89 c7             	mov    %rax,%rdi
ffffffff80000b5c:	e8 9b fc ff ff       	call   ffffffff800007fc <_Z6StrLenPc>
ffffffff80000b61:	89 c1                	mov    %eax,%ecx
ffffffff80000b63:	48 8b 45 f8          	mov    -0x8(%rbp),%rax
ffffffff80000b67:	0f b6 75 f0          	movzbl -0x10(%rbp),%esi
ffffffff80000b6b:	0f b6 55 f1          	movzbl -0xf(%rbp),%edx
ffffffff80000b6f:	48 c1 e2 08          	shl    $0x8,%rdx
ffffffff80000b73:	48 09 d6             	or     %rdx,%rsi
ffffffff80000b76:	0f b6 55 f2          	movzbl -0xe(%rbp),%edx
ffffffff80000b7a:	48 c1 e2 10          	shl    $0x10,%rdx
ffffffff80000b7e:	48 09 f2             	or     %rsi,%rdx
ffffffff80000b81:	89 ce                	mov    %ecx,%esi
ffffffff80000b83:	48 89 c7             	mov    %rax,%rdi
ffffffff80000b86:	e8 5a ff ff ff       	call   ffffffff80000ae5 <_ZN8Terminal9PutStringEPcjN8Graphics5ColorE>
ffffffff80000b8b:	90                   	nop
ffffffff80000b8c:	c9                   	leave
ffffffff80000b8d:	c3                   	ret

ffffffff80000b8e <_ZN8Terminal5PrintEPKcN8Graphics5ColorE>:
ffffffff80000b8e:	55                   	push   %rbp
ffffffff80000b8f:	48 89 e5             	mov    %rsp,%rbp
ffffffff80000b92:	48 83 ec 10          	sub    $0x10,%rsp
ffffffff80000b96:	48 89 7d f8          	mov    %rdi,-0x8(%rbp)
ffffffff80000b9a:	48 89 75 f0          	mov    %rsi,-0x10(%rbp)
ffffffff80000b9e:	48 8b 45 f8          	mov    -0x8(%rbp),%rax
ffffffff80000ba2:	0f b6 4d f0          	movzbl -0x10(%rbp),%ecx
ffffffff80000ba6:	0f b6 55 f1          	movzbl -0xf(%rbp),%edx
ffffffff80000baa:	48 c1 e2 08          	shl    $0x8,%rdx
ffffffff80000bae:	48 09 d1             	or     %rdx,%rcx
ffffffff80000bb1:	0f b6 55 f2          	movzbl -0xe(%rbp),%edx
ffffffff80000bb5:	48 c1 e2 10          	shl    $0x10,%rdx
ffffffff80000bb9:	48 09 ca             	or     %rcx,%rdx
ffffffff80000bbc:	48 89 d6             	mov    %rdx,%rsi
ffffffff80000bbf:	48 89 c7             	mov    %rax,%rdi
ffffffff80000bc2:	e8 7e ff ff ff       	call   ffffffff80000b45 <_ZN8Terminal5PrintEPcN8Graphics5ColorE>
ffffffff80000bc7:	90                   	nop
ffffffff80000bc8:	c9                   	leave
ffffffff80000bc9:	c3                   	ret

ffffffff80000bca <_ZN8Terminal7VPrintfEN8Graphics5ColorEPKcP13__va_list_tag>:
ffffffff80000bca:	55                   	push   %rbp
ffffffff80000bcb:	48 89 e5             	mov    %rsp,%rbp
ffffffff80000bce:	48 83 c4 80          	add    $0xffffffffffffff80,%rsp
ffffffff80000bd2:	48 89 7d 98          	mov    %rdi,-0x68(%rbp)
ffffffff80000bd6:	48 89 75 90          	mov    %rsi,-0x70(%rbp)
ffffffff80000bda:	48 89 55 88          	mov    %rdx,-0x78(%rbp)
ffffffff80000bde:	c7 45 fc 00 00 00 00 	movl   $0x0,-0x4(%rbp)
ffffffff80000be5:	e9 f9 03 00 00       	jmp    ffffffff80000fe3 <_ZN8Terminal7VPrintfEN8Graphics5ColorEPKcP13__va_list_tag+0x419>
ffffffff80000bea:	8b 45 fc             	mov    -0x4(%rbp),%eax
ffffffff80000bed:	48 63 d0             	movslq %eax,%rdx
ffffffff80000bf0:	48 8b 45 90          	mov    -0x70(%rbp),%rax
ffffffff80000bf4:	48 01 d0             	add    %rdx,%rax
ffffffff80000bf7:	0f b6 00             	movzbl (%rax),%eax
ffffffff80000bfa:	3c 25                	cmp    $0x25,%al
ffffffff80000bfc:	0f 85 a5 03 00 00    	jne    ffffffff80000fa7 <_ZN8Terminal7VPrintfEN8Graphics5ColorEPKcP13__va_list_tag+0x3dd>
ffffffff80000c02:	48 8b 55 90          	mov    -0x70(%rbp),%rdx
ffffffff80000c06:	83 45 fc 01          	addl   $0x1,-0x4(%rbp)
ffffffff80000c0a:	8b 45 fc             	mov    -0x4(%rbp),%eax
ffffffff80000c0d:	48 98                	cltq
ffffffff80000c0f:	48 01 d0             	add    %rdx,%rax
ffffffff80000c12:	0f b6 00             	movzbl (%rax),%eax
ffffffff80000c15:	3c 25                	cmp    $0x25,%al
ffffffff80000c17:	0f 94 c0             	sete   %al
ffffffff80000c1a:	84 c0                	test   %al,%al
ffffffff80000c1c:	74 41                	je     ffffffff80000c5f <_ZN8Terminal7VPrintfEN8Graphics5ColorEPKcP13__va_list_tag+0x95>
ffffffff80000c1e:	48 8b 4d 90          	mov    -0x70(%rbp),%rcx
ffffffff80000c22:	8b 45 fc             	mov    -0x4(%rbp),%eax
ffffffff80000c25:	8d 50 01             	lea    0x1(%rax),%edx
ffffffff80000c28:	89 55 fc             	mov    %edx,-0x4(%rbp)
ffffffff80000c2b:	48 98                	cltq
ffffffff80000c2d:	48 01 c8             	add    %rcx,%rax
ffffffff80000c30:	0f b6 00             	movzbl (%rax),%eax
ffffffff80000c33:	0f be c0             	movsbl %al,%eax
ffffffff80000c36:	0f b6 4d 98          	movzbl -0x68(%rbp),%ecx
ffffffff80000c3a:	0f b6 55 99          	movzbl -0x67(%rbp),%edx
ffffffff80000c3e:	48 c1 e2 08          	shl    $0x8,%rdx
ffffffff80000c42:	48 09 d1             	or     %rdx,%rcx
ffffffff80000c45:	0f b6 55 9a          	movzbl -0x66(%rbp),%edx
ffffffff80000c49:	48 c1 e2 10          	shl    $0x10,%rdx
ffffffff80000c4d:	48 09 ca             	or     %rcx,%rdx
ffffffff80000c50:	48 89 d6             	mov    %rdx,%rsi
ffffffff80000c53:	89 c7                	mov    %eax,%edi
ffffffff80000c55:	e8 e0 fd ff ff       	call   ffffffff80000a3a <_ZN8Terminal7PutCharEcN8Graphics5ColorE>
ffffffff80000c5a:	e9 84 03 00 00       	jmp    ffffffff80000fe3 <_ZN8Terminal7VPrintfEN8Graphics5ColorEPKcP13__va_list_tag+0x419>
ffffffff80000c5f:	8b 45 fc             	mov    -0x4(%rbp),%eax
ffffffff80000c62:	48 63 d0             	movslq %eax,%rdx
ffffffff80000c65:	48 8b 45 90          	mov    -0x70(%rbp),%rax
ffffffff80000c69:	48 01 d0             	add    %rdx,%rax
ffffffff80000c6c:	0f b6 00             	movzbl (%rax),%eax
ffffffff80000c6f:	3c 64                	cmp    $0x64,%al
ffffffff80000c71:	74 18                	je     ffffffff80000c8b <_ZN8Terminal7VPrintfEN8Graphics5ColorEPKcP13__va_list_tag+0xc1>
ffffffff80000c73:	8b 45 fc             	mov    -0x4(%rbp),%eax
ffffffff80000c76:	48 63 d0             	movslq %eax,%rdx
ffffffff80000c79:	48 8b 45 90          	mov    -0x70(%rbp),%rax
ffffffff80000c7d:	48 01 d0             	add    %rdx,%rax
ffffffff80000c80:	0f b6 00             	movzbl (%rax),%eax
ffffffff80000c83:	3c 69                	cmp    $0x69,%al
ffffffff80000c85:	0f 85 99 00 00 00    	jne    ffffffff80000d24 <_ZN8Terminal7VPrintfEN8Graphics5ColorEPKcP13__va_list_tag+0x15a>
ffffffff80000c8b:	48 8b 45 88          	mov    -0x78(%rbp),%rax
ffffffff80000c8f:	8b 00                	mov    (%rax),%eax
ffffffff80000c91:	83 f8 2f             	cmp    $0x2f,%eax
ffffffff80000c94:	77 24                	ja     ffffffff80000cba <_ZN8Terminal7VPrintfEN8Graphics5ColorEPKcP13__va_list_tag+0xf0>
ffffffff80000c96:	48 8b 45 88          	mov    -0x78(%rbp),%rax
ffffffff80000c9a:	48 8b 50 10          	mov    0x10(%rax),%rdx
ffffffff80000c9e:	48 8b 45 88          	mov    -0x78(%rbp),%rax
ffffffff80000ca2:	8b 00                	mov    (%rax),%eax
ffffffff80000ca4:	89 c0                	mov    %eax,%eax
ffffffff80000ca6:	48 01 d0             	add    %rdx,%rax
ffffffff80000ca9:	48 8b 55 88          	mov    -0x78(%rbp),%rdx
ffffffff80000cad:	8b 12                	mov    (%rdx),%edx
ffffffff80000caf:	8d 4a 08             	lea    0x8(%rdx),%ecx
ffffffff80000cb2:	48 8b 55 88          	mov    -0x78(%rbp),%rdx
ffffffff80000cb6:	89 0a                	mov    %ecx,(%rdx)
ffffffff80000cb8:	eb 14                	jmp    ffffffff80000cce <_ZN8Terminal7VPrintfEN8Graphics5ColorEPKcP13__va_list_tag+0x104>
ffffffff80000cba:	48 8b 45 88          	mov    -0x78(%rbp),%rax
ffffffff80000cbe:	48 8b 40 08          	mov    0x8(%rax),%rax
ffffffff80000cc2:	48 8d 48 08          	lea    0x8(%rax),%rcx
ffffffff80000cc6:	48 8b 55 88          	mov    -0x78(%rbp),%rdx
ffffffff80000cca:	48 89 4a 08          	mov    %rcx,0x8(%rdx)
ffffffff80000cce:	48 8b 00             	mov    (%rax),%rax
ffffffff80000cd1:	48 89 45 d0          	mov    %rax,-0x30(%rbp)
ffffffff80000cd5:	48 8d 4d a9          	lea    -0x57(%rbp),%rcx
ffffffff80000cd9:	48 8b 45 d0          	mov    -0x30(%rbp),%rax
ffffffff80000cdd:	ba 0a 00 00 00       	mov    $0xa,%edx
ffffffff80000ce2:	48 89 ce             	mov    %rcx,%rsi
ffffffff80000ce5:	48 89 c7             	mov    %rax,%rdi
ffffffff80000ce8:	e8 3e fb ff ff       	call   ffffffff8000082b <_Z4IToAlPci>
ffffffff80000ced:	89 45 cc             	mov    %eax,-0x34(%rbp)
ffffffff80000cf0:	8b 4d cc             	mov    -0x34(%rbp),%ecx
ffffffff80000cf3:	48 8d 45 a9          	lea    -0x57(%rbp),%rax
ffffffff80000cf7:	0f b6 75 98          	movzbl -0x68(%rbp),%esi
ffffffff80000cfb:	0f b6 55 99          	movzbl -0x67(%rbp),%edx
ffffffff80000cff:	48 c1 e2 08          	shl    $0x8,%rdx
ffffffff80000d03:	48 09 d6             	or     %rdx,%rsi
ffffffff80000d06:	0f b6 55 9a          	movzbl -0x66(%rbp),%edx
ffffffff80000d0a:	48 c1 e2 10          	shl    $0x10,%rdx
ffffffff80000d0e:	48 09 f2             	or     %rsi,%rdx
ffffffff80000d11:	89 ce                	mov    %ecx,%esi
ffffffff80000d13:	48 89 c7             	mov    %rax,%rdi
ffffffff80000d16:	e8 ca fd ff ff       	call   ffffffff80000ae5 <_ZN8Terminal9PutStringEPcjN8Graphics5ColorE>
ffffffff80000d1b:	83 45 fc 01          	addl   $0x1,-0x4(%rbp)
ffffffff80000d1f:	e9 bf 02 00 00       	jmp    ffffffff80000fe3 <_ZN8Terminal7VPrintfEN8Graphics5ColorEPKcP13__va_list_tag+0x419>
ffffffff80000d24:	8b 45 fc             	mov    -0x4(%rbp),%eax
ffffffff80000d27:	48 63 d0             	movslq %eax,%rdx
ffffffff80000d2a:	48 8b 45 90          	mov    -0x70(%rbp),%rax
ffffffff80000d2e:	48 01 d0             	add    %rdx,%rax
ffffffff80000d31:	0f b6 00             	movzbl (%rax),%eax
ffffffff80000d34:	3c 78                	cmp    $0x78,%al
ffffffff80000d36:	0f 85 c2 00 00 00    	jne    ffffffff80000dfe <_ZN8Terminal7VPrintfEN8Graphics5ColorEPKcP13__va_list_tag+0x234>
ffffffff80000d3c:	48 c7 45 a9 30 78 00 	movq   $0x7830,-0x57(%rbp)
ffffffff80000d43:	00 
ffffffff80000d44:	48 c7 45 b1 00 00 00 	movq   $0x0,-0x4f(%rbp)
ffffffff80000d4b:	00 
ffffffff80000d4c:	48 c7 45 b9 00 00 00 	movq   $0x0,-0x47(%rbp)
ffffffff80000d53:	00 
ffffffff80000d54:	48 c7 45 c1 00 00 00 	movq   $0x0,-0x3f(%rbp)
ffffffff80000d5b:	00 
ffffffff80000d5c:	48 8b 45 88          	mov    -0x78(%rbp),%rax
ffffffff80000d60:	8b 00                	mov    (%rax),%eax
ffffffff80000d62:	83 f8 2f             	cmp    $0x2f,%eax
ffffffff80000d65:	77 24                	ja     ffffffff80000d8b <_ZN8Terminal7VPrintfEN8Graphics5ColorEPKcP13__va_list_tag+0x1c1>
ffffffff80000d67:	48 8b 45 88          	mov    -0x78(%rbp),%rax
ffffffff80000d6b:	48 8b 50 10          	mov    0x10(%rax),%rdx
ffffffff80000d6f:	48 8b 45 88          	mov    -0x78(%rbp),%rax
ffffffff80000d73:	8b 00                	mov    (%rax),%eax
ffffffff80000d75:	89 c0                	mov    %eax,%eax
ffffffff80000d77:	48 01 d0             	add    %rdx,%rax
ffffffff80000d7a:	48 8b 55 88          	mov    -0x78(%rbp),%rdx
ffffffff80000d7e:	8b 12                	mov    (%rdx),%edx
ffffffff80000d80:	8d 4a 08             	lea    0x8(%rdx),%ecx
ffffffff80000d83:	48 8b 55 88          	mov    -0x78(%rbp),%rdx
ffffffff80000d87:	89 0a                	mov    %ecx,(%rdx)
ffffffff80000d89:	eb 14                	jmp    ffffffff80000d9f <_ZN8Terminal7VPrintfEN8Graphics5ColorEPKcP13__va_list_tag+0x1d5>
ffffffff80000d8b:	48 8b 45 88          	mov    -0x78(%rbp),%rax
ffffffff80000d8f:	48 8b 40 08          	mov    0x8(%rax),%rax
ffffffff80000d93:	48 8d 48 08          	lea    0x8(%rax),%rcx
ffffffff80000d97:	48 8b 55 88          	mov    -0x78(%rbp),%rdx
ffffffff80000d9b:	48 89 4a 08          	mov    %rcx,0x8(%rdx)
ffffffff80000d9f:	48 8b 00             	mov    (%rax),%rax
ffffffff80000da2:	48 89 45 e0          	mov    %rax,-0x20(%rbp)
ffffffff80000da6:	48 8d 45 a9          	lea    -0x57(%rbp),%rax
ffffffff80000daa:	48 83 c0 02          	add    $0x2,%rax
ffffffff80000dae:	48 8b 4d e0          	mov    -0x20(%rbp),%rcx
ffffffff80000db2:	ba 10 00 00 00       	mov    $0x10,%edx
ffffffff80000db7:	48 89 c6             	mov    %rax,%rsi
ffffffff80000dba:	48 89 cf             	mov    %rcx,%rdi
ffffffff80000dbd:	e8 69 fa ff ff       	call   ffffffff8000082b <_Z4IToAlPci>
ffffffff80000dc2:	89 45 dc             	mov    %eax,-0x24(%rbp)
ffffffff80000dc5:	8b 45 dc             	mov    -0x24(%rbp),%eax
ffffffff80000dc8:	83 c0 02             	add    $0x2,%eax
ffffffff80000dcb:	89 c1                	mov    %eax,%ecx
ffffffff80000dcd:	48 8d 45 a9          	lea    -0x57(%rbp),%rax
ffffffff80000dd1:	0f b6 75 98          	movzbl -0x68(%rbp),%esi
ffffffff80000dd5:	0f b6 55 99          	movzbl -0x67(%rbp),%edx
ffffffff80000dd9:	48 c1 e2 08          	shl    $0x8,%rdx
ffffffff80000ddd:	48 09 d6             	or     %rdx,%rsi
ffffffff80000de0:	0f b6 55 9a          	movzbl -0x66(%rbp),%edx
ffffffff80000de4:	48 c1 e2 10          	shl    $0x10,%rdx
ffffffff80000de8:	48 09 f2             	or     %rsi,%rdx
ffffffff80000deb:	89 ce                	mov    %ecx,%esi
ffffffff80000ded:	48 89 c7             	mov    %rax,%rdi
ffffffff80000df0:	e8 f0 fc ff ff       	call   ffffffff80000ae5 <_ZN8Terminal9PutStringEPcjN8Graphics5ColorE>
ffffffff80000df5:	83 45 fc 01          	addl   $0x1,-0x4(%rbp)
ffffffff80000df9:	e9 e5 01 00 00       	jmp    ffffffff80000fe3 <_ZN8Terminal7VPrintfEN8Graphics5ColorEPKcP13__va_list_tag+0x419>
ffffffff80000dfe:	8b 45 fc             	mov    -0x4(%rbp),%eax
ffffffff80000e01:	48 63 d0             	movslq %eax,%rdx
ffffffff80000e04:	48 8b 45 90          	mov    -0x70(%rbp),%rax
ffffffff80000e08:	48 01 d0             	add    %rdx,%rax
ffffffff80000e0b:	0f b6 00             	movzbl (%rax),%eax
ffffffff80000e0e:	3c 63                	cmp    $0x63,%al
ffffffff80000e10:	75 7f                	jne    ffffffff80000e91 <_ZN8Terminal7VPrintfEN8Graphics5ColorEPKcP13__va_list_tag+0x2c7>
ffffffff80000e12:	48 8b 45 88          	mov    -0x78(%rbp),%rax
ffffffff80000e16:	8b 00                	mov    (%rax),%eax
ffffffff80000e18:	83 f8 2f             	cmp    $0x2f,%eax
ffffffff80000e1b:	77 24                	ja     ffffffff80000e41 <_ZN8Terminal7VPrintfEN8Graphics5ColorEPKcP13__va_list_tag+0x277>
ffffffff80000e1d:	48 8b 45 88          	mov    -0x78(%rbp),%rax
ffffffff80000e21:	48 8b 50 10          	mov    0x10(%rax),%rdx
ffffffff80000e25:	48 8b 45 88          	mov    -0x78(%rbp),%rax
ffffffff80000e29:	8b 00                	mov    (%rax),%eax
ffffffff80000e2b:	89 c0                	mov    %eax,%eax
ffffffff80000e2d:	48 01 d0             	add    %rdx,%rax
ffffffff80000e30:	48 8b 55 88          	mov    -0x78(%rbp),%rdx
ffffffff80000e34:	8b 12                	mov    (%rdx),%edx
ffffffff80000e36:	8d 4a 08             	lea    0x8(%rdx),%ecx
ffffffff80000e39:	48 8b 55 88          	mov    -0x78(%rbp),%rdx
ffffffff80000e3d:	89 0a                	mov    %ecx,(%rdx)
ffffffff80000e3f:	eb 14                	jmp    ffffffff80000e55 <_ZN8Terminal7VPrintfEN8Graphics5ColorEPKcP13__va_list_tag+0x28b>
ffffffff80000e41:	48 8b 45 88          	mov    -0x78(%rbp),%rax
ffffffff80000e45:	48 8b 40 08          	mov    0x8(%rax),%rax
ffffffff80000e49:	48 8d 48 08          	lea    0x8(%rax),%rcx
ffffffff80000e4d:	48 8b 55 88          	mov    -0x78(%rbp),%rdx
ffffffff80000e51:	48 89 4a 08          	mov    %rcx,0x8(%rdx)
ffffffff80000e55:	8b 00                	mov    (%rax),%eax
ffffffff80000e57:	89 45 ec             	mov    %eax,-0x14(%rbp)
ffffffff80000e5a:	8b 45 ec             	mov    -0x14(%rbp),%eax
ffffffff80000e5d:	88 45 eb             	mov    %al,-0x15(%rbp)
ffffffff80000e60:	0f be 45 eb          	movsbl -0x15(%rbp),%eax
ffffffff80000e64:	0f b6 4d 98          	movzbl -0x68(%rbp),%ecx
ffffffff80000e68:	0f b6 55 99          	movzbl -0x67(%rbp),%edx
ffffffff80000e6c:	48 c1 e2 08          	shl    $0x8,%rdx
ffffffff80000e70:	48 09 d1             	or     %rdx,%rcx
ffffffff80000e73:	0f b6 55 9a          	movzbl -0x66(%rbp),%edx
ffffffff80000e77:	48 c1 e2 10          	shl    $0x10,%rdx
ffffffff80000e7b:	48 09 ca             	or     %rcx,%rdx
ffffffff80000e7e:	48 89 d6             	mov    %rdx,%rsi
ffffffff80000e81:	89 c7                	mov    %eax,%edi
ffffffff80000e83:	e8 b2 fb ff ff       	call   ffffffff80000a3a <_ZN8Terminal7PutCharEcN8Graphics5ColorE>
ffffffff80000e88:	83 45 fc 01          	addl   $0x1,-0x4(%rbp)
ffffffff80000e8c:	e9 52 01 00 00       	jmp    ffffffff80000fe3 <_ZN8Terminal7VPrintfEN8Graphics5ColorEPKcP13__va_list_tag+0x419>
ffffffff80000e91:	8b 45 fc             	mov    -0x4(%rbp),%eax
ffffffff80000e94:	48 63 d0             	movslq %eax,%rdx
ffffffff80000e97:	48 8b 45 90          	mov    -0x70(%rbp),%rax
ffffffff80000e9b:	48 01 d0             	add    %rdx,%rax
ffffffff80000e9e:	0f b6 00             	movzbl (%rax),%eax
ffffffff80000ea1:	3c 73                	cmp    $0x73,%al
ffffffff80000ea3:	75 7c                	jne    ffffffff80000f21 <_ZN8Terminal7VPrintfEN8Graphics5ColorEPKcP13__va_list_tag+0x357>
ffffffff80000ea5:	48 8b 45 88          	mov    -0x78(%rbp),%rax
ffffffff80000ea9:	8b 00                	mov    (%rax),%eax
ffffffff80000eab:	83 f8 2f             	cmp    $0x2f,%eax
ffffffff80000eae:	77 24                	ja     ffffffff80000ed4 <_ZN8Terminal7VPrintfEN8Graphics5ColorEPKcP13__va_list_tag+0x30a>
ffffffff80000eb0:	48 8b 45 88          	mov    -0x78(%rbp),%rax
ffffffff80000eb4:	48 8b 50 10          	mov    0x10(%rax),%rdx
ffffffff80000eb8:	48 8b 45 88          	mov    -0x78(%rbp),%rax
ffffffff80000ebc:	8b 00                	mov    (%rax),%eax
ffffffff80000ebe:	89 c0                	mov    %eax,%eax
ffffffff80000ec0:	48 01 d0             	add    %rdx,%rax
ffffffff80000ec3:	48 8b 55 88          	mov    -0x78(%rbp),%rdx
ffffffff80000ec7:	8b 12                	mov    (%rdx),%edx
ffffffff80000ec9:	8d 4a 08             	lea    0x8(%rdx),%ecx
ffffffff80000ecc:	48 8b 55 88          	mov    -0x78(%rbp),%rdx
ffffffff80000ed0:	89 0a                	mov    %ecx,(%rdx)
ffffffff80000ed2:	eb 14                	jmp    ffffffff80000ee8 <_ZN8Terminal7VPrintfEN8Graphics5ColorEPKcP13__va_list_tag+0x31e>
ffffffff80000ed4:	48 8b 45 88          	mov    -0x78(%rbp),%rax
ffffffff80000ed8:	48 8b 40 08          	mov    0x8(%rax),%rax
ffffffff80000edc:	48 8d 48 08          	lea    0x8(%rax),%rcx
ffffffff80000ee0:	48 8b 55 88          	mov    -0x78(%rbp),%rdx
ffffffff80000ee4:	48 89 4a 08          	mov    %rcx,0x8(%rdx)
ffffffff80000ee8:	48 8b 00             	mov    (%rax),%rax
ffffffff80000eeb:	48 89 45 f0          	mov    %rax,-0x10(%rbp)
ffffffff80000eef:	48 8b 45 f0          	mov    -0x10(%rbp),%rax
ffffffff80000ef3:	0f b6 4d 98          	movzbl -0x68(%rbp),%ecx
ffffffff80000ef7:	0f b6 55 99          	movzbl -0x67(%rbp),%edx
ffffffff80000efb:	48 c1 e2 08          	shl    $0x8,%rdx
ffffffff80000eff:	48 09 d1             	or     %rdx,%rcx
ffffffff80000f02:	0f b6 55 9a          	movzbl -0x66(%rbp),%edx
ffffffff80000f06:	48 c1 e2 10          	shl    $0x10,%rdx
ffffffff80000f0a:	48 09 ca             	or     %rcx,%rdx
ffffffff80000f0d:	48 89 d6             	mov    %rdx,%rsi
ffffffff80000f10:	48 89 c7             	mov    %rax,%rdi
ffffffff80000f13:	e8 2d fc ff ff       	call   ffffffff80000b45 <_ZN8Terminal5PrintEPcN8Graphics5ColorE>
ffffffff80000f18:	83 45 fc 01          	addl   $0x1,-0x4(%rbp)
ffffffff80000f1c:	e9 c2 00 00 00       	jmp    ffffffff80000fe3 <_ZN8Terminal7VPrintfEN8Graphics5ColorEPKcP13__va_list_tag+0x419>
ffffffff80000f21:	8b 45 fc             	mov    -0x4(%rbp),%eax
ffffffff80000f24:	48 63 d0             	movslq %eax,%rdx
ffffffff80000f27:	48 8b 45 90          	mov    -0x70(%rbp),%rax
ffffffff80000f2b:	48 01 d0             	add    %rdx,%rax
ffffffff80000f2e:	0f b6 00             	movzbl (%rax),%eax
ffffffff80000f31:	3c 23                	cmp    $0x23,%al
ffffffff80000f33:	0f 85 aa 00 00 00    	jne    ffffffff80000fe3 <_ZN8Terminal7VPrintfEN8Graphics5ColorEPKcP13__va_list_tag+0x419>
ffffffff80000f39:	48 8b 45 88          	mov    -0x78(%rbp),%rax
ffffffff80000f3d:	8b 00                	mov    (%rax),%eax
ffffffff80000f3f:	83 f8 2f             	cmp    $0x2f,%eax
ffffffff80000f42:	77 24                	ja     ffffffff80000f68 <_ZN8Terminal7VPrintfEN8Graphics5ColorEPKcP13__va_list_tag+0x39e>
ffffffff80000f44:	48 8b 45 88          	mov    -0x78(%rbp),%rax
ffffffff80000f48:	48 8b 50 10          	mov    0x10(%rax),%rdx
ffffffff80000f4c:	48 8b 45 88          	mov    -0x78(%rbp),%rax
ffffffff80000f50:	8b 00                	mov    (%rax),%eax
ffffffff80000f52:	89 c0                	mov    %eax,%eax
ffffffff80000f54:	48 01 d0             	add    %rdx,%rax
ffffffff80000f57:	48 8b 55 88          	mov    -0x78(%rbp),%rdx
ffffffff80000f5b:	8b 12                	mov    (%rdx),%edx
ffffffff80000f5d:	8d 4a 08             	lea    0x8(%rdx),%ecx
ffffffff80000f60:	48 8b 55 88          	mov    -0x78(%rbp),%rdx
ffffffff80000f64:	89 0a                	mov    %ecx,(%rdx)
ffffffff80000f66:	eb 14                	jmp    ffffffff80000f7c <_ZN8Terminal7VPrintfEN8Graphics5ColorEPKcP13__va_list_tag+0x3b2>
ffffffff80000f68:	48 8b 45 88          	mov    -0x78(%rbp),%rax
ffffffff80000f6c:	48 8b 40 08          	mov    0x8(%rax),%rax
ffffffff80000f70:	48 8d 48 08          	lea    0x8(%rax),%rcx
ffffffff80000f74:	48 8b 55 88          	mov    -0x78(%rbp),%rdx
ffffffff80000f78:	48 89 4a 08          	mov    %rcx,0x8(%rdx)
ffffffff80000f7c:	8b 00                	mov    (%rax),%eax
ffffffff80000f7e:	89 45 f8             	mov    %eax,-0x8(%rbp)
ffffffff80000f81:	8b 55 f8             	mov    -0x8(%rbp),%edx
ffffffff80000f84:	48 8d 45 c9          	lea    -0x37(%rbp),%rax
ffffffff80000f88:	89 d6                	mov    %edx,%esi
ffffffff80000f8a:	48 89 c7             	mov    %rax,%rdi
ffffffff80000f8d:	e8 f6 01 00 00       	call   ffffffff80001188 <_ZN8Graphics5ColorC1Ej>
ffffffff80000f92:	0f b7 45 c9          	movzwl -0x37(%rbp),%eax
ffffffff80000f96:	66 89 45 98          	mov    %ax,-0x68(%rbp)
ffffffff80000f9a:	0f b6 45 cb          	movzbl -0x35(%rbp),%eax
ffffffff80000f9e:	88 45 9a             	mov    %al,-0x66(%rbp)
ffffffff80000fa1:	83 45 fc 01          	addl   $0x1,-0x4(%rbp)
ffffffff80000fa5:	eb 3c                	jmp    ffffffff80000fe3 <_ZN8Terminal7VPrintfEN8Graphics5ColorEPKcP13__va_list_tag+0x419>
ffffffff80000fa7:	48 8b 4d 90          	mov    -0x70(%rbp),%rcx
ffffffff80000fab:	8b 45 fc             	mov    -0x4(%rbp),%eax
ffffffff80000fae:	8d 50 01             	lea    0x1(%rax),%edx
ffffffff80000fb1:	89 55 fc             	mov    %edx,-0x4(%rbp)
ffffffff80000fb4:	48 98                	cltq
ffffffff80000fb6:	48 01 c8             	add    %rcx,%rax
ffffffff80000fb9:	0f b6 00             	movzbl (%rax),%eax
ffffffff80000fbc:	0f be c0             	movsbl %al,%eax
ffffffff80000fbf:	0f b6 4d 98          	movzbl -0x68(%rbp),%ecx
ffffffff80000fc3:	0f b6 55 99          	movzbl -0x67(%rbp),%edx
ffffffff80000fc7:	48 c1 e2 08          	shl    $0x8,%rdx
ffffffff80000fcb:	48 09 d1             	or     %rdx,%rcx
ffffffff80000fce:	0f b6 55 9a          	movzbl -0x66(%rbp),%edx
ffffffff80000fd2:	48 c1 e2 10          	shl    $0x10,%rdx
ffffffff80000fd6:	48 09 ca             	or     %rcx,%rdx
ffffffff80000fd9:	48 89 d6             	mov    %rdx,%rsi
ffffffff80000fdc:	89 c7                	mov    %eax,%edi
ffffffff80000fde:	e8 57 fa ff ff       	call   ffffffff80000a3a <_ZN8Terminal7PutCharEcN8Graphics5ColorE>
ffffffff80000fe3:	8b 45 fc             	mov    -0x4(%rbp),%eax
ffffffff80000fe6:	48 63 d0             	movslq %eax,%rdx
ffffffff80000fe9:	48 8b 45 90          	mov    -0x70(%rbp),%rax
ffffffff80000fed:	48 01 d0             	add    %rdx,%rax
ffffffff80000ff0:	0f b6 00             	movzbl (%rax),%eax
ffffffff80000ff3:	84 c0                	test   %al,%al
ffffffff80000ff5:	0f 85 ef fb ff ff    	jne    ffffffff80000bea <_ZN8Terminal7VPrintfEN8Graphics5ColorEPKcP13__va_list_tag+0x20>
ffffffff80000ffb:	90                   	nop
ffffffff80000ffc:	90                   	nop
ffffffff80000ffd:	c9                   	leave
ffffffff80000ffe:	c3                   	ret

ffffffff80000fff <_ZN8Terminal6PrintfEN8Graphics5ColorEPKcz>:
ffffffff80000fff:	55                   	push   %rbp
ffffffff80001000:	48 89 e5             	mov    %rsp,%rbp
ffffffff80001003:	48 83 ec 60          	sub    $0x60,%rsp
ffffffff80001007:	48 89 7d a8          	mov    %rdi,-0x58(%rbp)
ffffffff8000100b:	48 89 75 a0          	mov    %rsi,-0x60(%rbp)
ffffffff8000100f:	48 89 55 e0          	mov    %rdx,-0x20(%rbp)
ffffffff80001013:	48 89 4d e8          	mov    %rcx,-0x18(%rbp)
ffffffff80001017:	4c 89 45 f0          	mov    %r8,-0x10(%rbp)
ffffffff8000101b:	4c 89 4d f8          	mov    %r9,-0x8(%rbp)
ffffffff8000101f:	c7 45 b8 10 00 00 00 	movl   $0x10,-0x48(%rbp)
ffffffff80001026:	48 8d 45 10          	lea    0x10(%rbp),%rax
ffffffff8000102a:	48 89 45 c0          	mov    %rax,-0x40(%rbp)
ffffffff8000102e:	48 8d 45 d0          	lea    -0x30(%rbp),%rax
ffffffff80001032:	48 89 45 c8          	mov    %rax,-0x38(%rbp)
ffffffff80001036:	48 8d 55 b8          	lea    -0x48(%rbp),%rdx
ffffffff8000103a:	48 8b 45 a0          	mov    -0x60(%rbp),%rax
ffffffff8000103e:	48 89 c6             	mov    %rax,%rsi
ffffffff80001041:	0f b6 4d a8          	movzbl -0x58(%rbp),%ecx
ffffffff80001045:	0f b6 45 a9          	movzbl -0x57(%rbp),%eax
ffffffff80001049:	48 c1 e0 08          	shl    $0x8,%rax
ffffffff8000104d:	48 09 c1             	or     %rax,%rcx
ffffffff80001050:	0f b6 45 aa          	movzbl -0x56(%rbp),%eax
ffffffff80001054:	48 c1 e0 10          	shl    $0x10,%rax
ffffffff80001058:	48 09 c8             	or     %rcx,%rax
ffffffff8000105b:	48 89 c7             	mov    %rax,%rdi
ffffffff8000105e:	e8 67 fb ff ff       	call   ffffffff80000bca <_ZN8Terminal7VPrintfEN8Graphics5ColorEPKcP13__va_list_tag>
ffffffff80001063:	90                   	nop
ffffffff80001064:	c9                   	leave
ffffffff80001065:	c3                   	ret

ffffffff80001066 <_Z10PITHandlerP14InterruptFrame>:
ffffffff80001066:	55                   	push   %rbp
ffffffff80001067:	48 89 e5             	mov    %rsp,%rbp
ffffffff8000106a:	48 83 ec 08          	sub    $0x8,%rsp
ffffffff8000106e:	48 89 7d f8          	mov    %rdi,-0x8(%rbp)
ffffffff80001072:	90                   	nop
ffffffff80001073:	c9                   	leave
ffffffff80001074:	c3                   	ret

ffffffff80001075 <_ZN3PIT4InitEt>:
ffffffff80001075:	55                   	push   %rbp
ffffffff80001076:	48 89 e5             	mov    %rsp,%rbp
ffffffff80001079:	48 83 ec 20          	sub    $0x20,%rsp
ffffffff8000107d:	89 f8                	mov    %edi,%eax
ffffffff8000107f:	66 89 45 ec          	mov    %ax,-0x14(%rbp)
ffffffff80001083:	48 c7 c6 66 10 00 80 	mov    $0xffffffff80001066,%rsi
ffffffff8000108a:	bf 00 00 00 00       	mov    $0x0,%edi
ffffffff8000108f:	e8 3c f1 ff ff       	call   ffffffff800001d0 <_Z18RegisterIRQHandlerhPFvP14InterruptFrameE>
ffffffff80001094:	48 8d 45 fe          	lea    -0x2(%rbp),%rax
ffffffff80001098:	be 40 00 00 00       	mov    $0x40,%esi
ffffffff8000109d:	48 89 c7             	mov    %rax,%rdi
ffffffff800010a0:	e8 67 00 00 00       	call   ffffffff8000110c <_ZN4PortIhEC1Et>
ffffffff800010a5:	48 8d 45 fc          	lea    -0x4(%rbp),%rax
ffffffff800010a9:	be 43 00 00 00       	mov    $0x43,%esi
ffffffff800010ae:	48 89 c7             	mov    %rax,%rdi
ffffffff800010b1:	e8 56 00 00 00       	call   ffffffff8000110c <_ZN4PortIhEC1Et>
ffffffff800010b6:	fa                   	cli
ffffffff800010b7:	48 8d 45 fc          	lea    -0x4(%rbp),%rax
ffffffff800010bb:	be 34 00 00 00       	mov    $0x34,%esi
ffffffff800010c0:	48 89 c7             	mov    %rax,%rdi
ffffffff800010c3:	e8 64 00 00 00       	call   ffffffff8000112c <_ZN4PortIhE5WriteEh>
ffffffff800010c8:	0f b7 45 ec          	movzwl -0x14(%rbp),%eax
ffffffff800010cc:	0f b6 d0             	movzbl %al,%edx
ffffffff800010cf:	48 8d 45 fe          	lea    -0x2(%rbp),%rax
ffffffff800010d3:	89 d6                	mov    %edx,%esi
ffffffff800010d5:	48 89 c7             	mov    %rax,%rdi
ffffffff800010d8:	e8 4f 00 00 00       	call   ffffffff8000112c <_ZN4PortIhE5WriteEh>
ffffffff800010dd:	0f b7 45 ec          	movzwl -0x14(%rbp),%eax
ffffffff800010e1:	66 c1 e8 08          	shr    $0x8,%ax
ffffffff800010e5:	0f b6 d0             	movzbl %al,%edx
ffffffff800010e8:	48 8d 45 fe          	lea    -0x2(%rbp),%rax
ffffffff800010ec:	89 d6                	mov    %edx,%esi
ffffffff800010ee:	48 89 c7             	mov    %rax,%rdi
ffffffff800010f1:	e8 36 00 00 00       	call   ffffffff8000112c <_ZN4PortIhE5WriteEh>
ffffffff800010f6:	fb                   	sti
ffffffff800010f7:	90                   	nop
ffffffff800010f8:	c9                   	leave
ffffffff800010f9:	c3                   	ret

ffffffff800010fa <_ZN3PIT7DisableEv>:
ffffffff800010fa:	55                   	push   %rbp
ffffffff800010fb:	48 89 e5             	mov    %rsp,%rbp
ffffffff800010fe:	bf 00 00 00 00       	mov    $0x0,%edi
ffffffff80001103:	e8 a2 03 00 00       	call   ffffffff800014aa <_ZN3PIC4MaskEh>
ffffffff80001108:	90                   	nop
ffffffff80001109:	5d                   	pop    %rbp
ffffffff8000110a:	c3                   	ret
ffffffff8000110b:	90                   	nop

ffffffff8000110c <_ZN4PortIhEC1Et>:
ffffffff8000110c:	55                   	push   %rbp
ffffffff8000110d:	48 89 e5             	mov    %rsp,%rbp
ffffffff80001110:	48 83 ec 10          	sub    $0x10,%rsp
ffffffff80001114:	48 89 7d f8          	mov    %rdi,-0x8(%rbp)
ffffffff80001118:	89 f0                	mov    %esi,%eax
ffffffff8000111a:	66 89 45 f4          	mov    %ax,-0xc(%rbp)
ffffffff8000111e:	48 8b 45 f8          	mov    -0x8(%rbp),%rax
ffffffff80001122:	0f b7 55 f4          	movzwl -0xc(%rbp),%edx
ffffffff80001126:	66 89 10             	mov    %dx,(%rax)
ffffffff80001129:	90                   	nop
ffffffff8000112a:	c9                   	leave
ffffffff8000112b:	c3                   	ret

ffffffff8000112c <_ZN4PortIhE5WriteEh>:
ffffffff8000112c:	55                   	push   %rbp
ffffffff8000112d:	48 89 e5             	mov    %rsp,%rbp
ffffffff80001130:	48 83 ec 10          	sub    $0x10,%rsp
ffffffff80001134:	48 89 7d f8          	mov    %rdi,-0x8(%rbp)
ffffffff80001138:	89 f0                	mov    %esi,%eax
ffffffff8000113a:	88 45 f4             	mov    %al,-0xc(%rbp)
ffffffff8000113d:	48 8b 45 f8          	mov    -0x8(%rbp),%rax
ffffffff80001141:	0f b7 10             	movzwl (%rax),%edx
ffffffff80001144:	0f b6 45 f4          	movzbl -0xc(%rbp),%eax
ffffffff80001148:	ee                   	out    %al,(%dx)
ffffffff80001149:	90                   	nop
ffffffff8000114a:	c9                   	leave
ffffffff8000114b:	c3                   	ret

ffffffff8000114c <_ZN8Graphics5ColorC1Ehhh>:
ffffffff8000114c:	55                   	push   %rbp
ffffffff8000114d:	48 89 e5             	mov    %rsp,%rbp
ffffffff80001150:	48 83 ec 18          	sub    $0x18,%rsp
ffffffff80001154:	48 89 7d f8          	mov    %rdi,-0x8(%rbp)
ffffffff80001158:	89 c8                	mov    %ecx,%eax
ffffffff8000115a:	89 f1                	mov    %esi,%ecx
ffffffff8000115c:	88 4d f4             	mov    %cl,-0xc(%rbp)
ffffffff8000115f:	88 55 f0             	mov    %dl,-0x10(%rbp)
ffffffff80001162:	88 45 ec             	mov    %al,-0x14(%rbp)
ffffffff80001165:	48 8b 45 f8          	mov    -0x8(%rbp),%rax
ffffffff80001169:	0f b6 55 f4          	movzbl -0xc(%rbp),%edx
ffffffff8000116d:	88 10                	mov    %dl,(%rax)
ffffffff8000116f:	48 8b 45 f8          	mov    -0x8(%rbp),%rax
ffffffff80001173:	0f b6 55 f0          	movzbl -0x10(%rbp),%edx
ffffffff80001177:	88 50 01             	mov    %dl,0x1(%rax)
ffffffff8000117a:	48 8b 45 f8          	mov    -0x8(%rbp),%rax
ffffffff8000117e:	0f b6 55 ec          	movzbl -0x14(%rbp),%edx
ffffffff80001182:	88 50 02             	mov    %dl,0x2(%rax)
ffffffff80001185:	90                   	nop
ffffffff80001186:	c9                   	leave
ffffffff80001187:	c3                   	ret

ffffffff80001188 <_ZN8Graphics5ColorC1Ej>:
ffffffff80001188:	55                   	push   %rbp
ffffffff80001189:	48 89 e5             	mov    %rsp,%rbp
ffffffff8000118c:	48 83 ec 10          	sub    $0x10,%rsp
ffffffff80001190:	48 89 7d f8          	mov    %rdi,-0x8(%rbp)
ffffffff80001194:	89 75 f4             	mov    %esi,-0xc(%rbp)
ffffffff80001197:	8b 45 f4             	mov    -0xc(%rbp),%eax
ffffffff8000119a:	c1 e8 10             	shr    $0x10,%eax
ffffffff8000119d:	89 c2                	mov    %eax,%edx
ffffffff8000119f:	48 8b 45 f8          	mov    -0x8(%rbp),%rax
ffffffff800011a3:	88 50 02             	mov    %dl,0x2(%rax)
ffffffff800011a6:	8b 45 f4             	mov    -0xc(%rbp),%eax
ffffffff800011a9:	c1 e8 08             	shr    $0x8,%eax
ffffffff800011ac:	89 c2                	mov    %eax,%edx
ffffffff800011ae:	48 8b 45 f8          	mov    -0x8(%rbp),%rax
ffffffff800011b2:	88 50 01             	mov    %dl,0x1(%rax)
ffffffff800011b5:	8b 45 f4             	mov    -0xc(%rbp),%eax
ffffffff800011b8:	89 c2                	mov    %eax,%edx
ffffffff800011ba:	48 8b 45 f8          	mov    -0x8(%rbp),%rax
ffffffff800011be:	88 10                	mov    %dl,(%rax)
ffffffff800011c0:	90                   	nop
ffffffff800011c1:	c9                   	leave
ffffffff800011c2:	c3                   	ret
ffffffff800011c3:	90                   	nop

ffffffff800011c4 <_ZN8Graphics5ColorcvjEv>:
ffffffff800011c4:	55                   	push   %rbp
ffffffff800011c5:	48 89 e5             	mov    %rsp,%rbp
ffffffff800011c8:	48 83 ec 08          	sub    $0x8,%rsp
ffffffff800011cc:	48 89 7d f8          	mov    %rdi,-0x8(%rbp)
ffffffff800011d0:	48 8b 45 f8          	mov    -0x8(%rbp),%rax
ffffffff800011d4:	0f b6 00             	movzbl (%rax),%eax
ffffffff800011d7:	0f b6 c0             	movzbl %al,%eax
ffffffff800011da:	c1 e0 10             	shl    $0x10,%eax
ffffffff800011dd:	89 c2                	mov    %eax,%edx
ffffffff800011df:	48 8b 45 f8          	mov    -0x8(%rbp),%rax
ffffffff800011e3:	0f b6 40 01          	movzbl 0x1(%rax),%eax
ffffffff800011e7:	0f b6 c0             	movzbl %al,%eax
ffffffff800011ea:	c1 e0 08             	shl    $0x8,%eax
ffffffff800011ed:	01 c2                	add    %eax,%edx
ffffffff800011ef:	48 8b 45 f8          	mov    -0x8(%rbp),%rax
ffffffff800011f3:	0f b6 40 02          	movzbl 0x2(%rax),%eax
ffffffff800011f7:	0f b6 c0             	movzbl %al,%eax
ffffffff800011fa:	01 d0                	add    %edx,%eax
ffffffff800011fc:	c9                   	leave
ffffffff800011fd:	c3                   	ret

ffffffff800011fe <_ZNK8Graphics5Color1rEv>:
ffffffff800011fe:	55                   	push   %rbp
ffffffff800011ff:	48 89 e5             	mov    %rsp,%rbp
ffffffff80001202:	48 83 ec 08          	sub    $0x8,%rsp
ffffffff80001206:	48 89 7d f8          	mov    %rdi,-0x8(%rbp)
ffffffff8000120a:	48 8b 45 f8          	mov    -0x8(%rbp),%rax
ffffffff8000120e:	0f b6 00             	movzbl (%rax),%eax
ffffffff80001211:	c9                   	leave
ffffffff80001212:	c3                   	ret
ffffffff80001213:	90                   	nop

ffffffff80001214 <_ZNK8Graphics5Color1gEv>:
ffffffff80001214:	55                   	push   %rbp
ffffffff80001215:	48 89 e5             	mov    %rsp,%rbp
ffffffff80001218:	48 83 ec 08          	sub    $0x8,%rsp
ffffffff8000121c:	48 89 7d f8          	mov    %rdi,-0x8(%rbp)
ffffffff80001220:	48 8b 45 f8          	mov    -0x8(%rbp),%rax
ffffffff80001224:	0f b6 40 01          	movzbl 0x1(%rax),%eax
ffffffff80001228:	c9                   	leave
ffffffff80001229:	c3                   	ret

ffffffff8000122a <_ZNK8Graphics5Color1bEv>:
ffffffff8000122a:	55                   	push   %rbp
ffffffff8000122b:	48 89 e5             	mov    %rsp,%rbp
ffffffff8000122e:	48 83 ec 08          	sub    $0x8,%rsp
ffffffff80001232:	48 89 7d f8          	mov    %rdi,-0x8(%rbp)
ffffffff80001236:	48 8b 45 f8          	mov    -0x8(%rbp),%rax
ffffffff8000123a:	0f b6 40 02          	movzbl 0x2(%rax),%eax
ffffffff8000123e:	c9                   	leave
ffffffff8000123f:	c3                   	ret

ffffffff80001240 <_ZN8Graphics4InitEv>:
ffffffff80001240:	55                   	push   %rbp
ffffffff80001241:	48 89 e5             	mov    %rsp,%rbp
ffffffff80001244:	48 8b 05 6d 1c 00 00 	mov    0x1c6d(%rip),%rax        # ffffffff80002eb8 <_ZN8GraphicsL5fbReqE+0x18>
ffffffff8000124b:	48 8b 38             	mov    (%rax),%rdi
ffffffff8000124e:	48 8b 05 63 1c 00 00 	mov    0x1c63(%rip),%rax        # ffffffff80002eb8 <_ZN8GraphicsL5fbReqE+0x18>
ffffffff80001255:	0f b7 40 20          	movzwl 0x20(%rax),%eax
ffffffff80001259:	0f b7 f0             	movzwl %ax,%esi
ffffffff8000125c:	48 8b 05 55 1c 00 00 	mov    0x1c55(%rip),%rax        # ffffffff80002eb8 <_ZN8GraphicsL5fbReqE+0x18>
ffffffff80001263:	48 8b 48 10          	mov    0x10(%rax),%rcx
ffffffff80001267:	48 8b 05 4a 1c 00 00 	mov    0x1c4a(%rip),%rax        # ffffffff80002eb8 <_ZN8GraphicsL5fbReqE+0x18>
ffffffff8000126e:	48 8b 50 18          	mov    0x18(%rax),%rdx
ffffffff80001272:	48 8b 05 3f 1c 00 00 	mov    0x1c3f(%rip),%rax        # ffffffff80002eb8 <_ZN8GraphicsL5fbReqE+0x18>
ffffffff80001279:	48 8b 40 08          	mov    0x8(%rax),%rax
ffffffff8000127d:	48 89 3d 3c 30 00 00 	mov    %rdi,0x303c(%rip)        # ffffffff800042c0 <_ZN8Graphics11framebufferE>
ffffffff80001284:	48 89 35 3d 30 00 00 	mov    %rsi,0x303d(%rip)        # ffffffff800042c8 <_ZN8Graphics11framebufferE+0x8>
ffffffff8000128b:	48 89 0d 3e 30 00 00 	mov    %rcx,0x303e(%rip)        # ffffffff800042d0 <_ZN8Graphics11framebufferE+0x10>
ffffffff80001292:	48 89 15 3f 30 00 00 	mov    %rdx,0x303f(%rip)        # ffffffff800042d8 <_ZN8Graphics11framebufferE+0x18>
ffffffff80001299:	48 89 05 40 30 00 00 	mov    %rax,0x3040(%rip)        # ffffffff800042e0 <_ZN8Graphics11framebufferE+0x20>
ffffffff800012a0:	90                   	nop
ffffffff800012a1:	5d                   	pop    %rbp
ffffffff800012a2:	c3                   	ret

ffffffff800012a3 <_ZN8Graphics8PutPixelEjjNS_5ColorE>:
ffffffff800012a3:	55                   	push   %rbp
ffffffff800012a4:	48 89 e5             	mov    %rsp,%rbp
ffffffff800012a7:	53                   	push   %rbx
ffffffff800012a8:	48 83 ec 20          	sub    $0x20,%rsp
ffffffff800012ac:	89 7d e4             	mov    %edi,-0x1c(%rbp)
ffffffff800012af:	89 75 e0             	mov    %esi,-0x20(%rbp)
ffffffff800012b2:	48 89 55 d8          	mov    %rdx,-0x28(%rbp)
ffffffff800012b6:	48 8b 05 03 30 00 00 	mov    0x3003(%rip),%rax        # ffffffff800042c0 <_ZN8Graphics11framebufferE>
ffffffff800012bd:	48 89 45 f0          	mov    %rax,-0x10(%rbp)
ffffffff800012c1:	8b 45 e4             	mov    -0x1c(%rbp),%eax
ffffffff800012c4:	8d 14 85 00 00 00 00 	lea    0x0(,%rax,4),%edx
ffffffff800012cb:	48 8b 05 f6 2f 00 00 	mov    0x2ff6(%rip),%rax        # ffffffff800042c8 <_ZN8Graphics11framebufferE+0x8>
ffffffff800012d2:	0f af 45 e0          	imul   -0x20(%rbp),%eax
ffffffff800012d6:	01 d0                	add    %edx,%eax
ffffffff800012d8:	89 45 ec             	mov    %eax,-0x14(%rbp)
ffffffff800012db:	8b 55 ec             	mov    -0x14(%rbp),%edx
ffffffff800012de:	48 8b 45 f0          	mov    -0x10(%rbp),%rax
ffffffff800012e2:	48 8d 1c 02          	lea    (%rdx,%rax,1),%rbx
ffffffff800012e6:	48 8d 45 d8          	lea    -0x28(%rbp),%rax
ffffffff800012ea:	48 89 c7             	mov    %rax,%rdi
ffffffff800012ed:	e8 0c ff ff ff       	call   ffffffff800011fe <_ZNK8Graphics5Color1rEv>
ffffffff800012f2:	88 03                	mov    %al,(%rbx)
ffffffff800012f4:	8b 45 ec             	mov    -0x14(%rbp),%eax
ffffffff800012f7:	83 c0 01             	add    $0x1,%eax
ffffffff800012fa:	89 c2                	mov    %eax,%edx
ffffffff800012fc:	48 8b 45 f0          	mov    -0x10(%rbp),%rax
ffffffff80001300:	48 8d 1c 02          	lea    (%rdx,%rax,1),%rbx
ffffffff80001304:	48 8d 45 d8          	lea    -0x28(%rbp),%rax
ffffffff80001308:	48 89 c7             	mov    %rax,%rdi
ffffffff8000130b:	e8 04 ff ff ff       	call   ffffffff80001214 <_ZNK8Graphics5Color1gEv>
ffffffff80001310:	88 03                	mov    %al,(%rbx)
ffffffff80001312:	8b 45 ec             	mov    -0x14(%rbp),%eax
ffffffff80001315:	83 c0 02             	add    $0x2,%eax
ffffffff80001318:	89 c2                	mov    %eax,%edx
ffffffff8000131a:	48 8b 45 f0          	mov    -0x10(%rbp),%rax
ffffffff8000131e:	48 8d 1c 02          	lea    (%rdx,%rax,1),%rbx
ffffffff80001322:	48 8d 45 d8          	lea    -0x28(%rbp),%rax
ffffffff80001326:	48 89 c7             	mov    %rax,%rdi
ffffffff80001329:	e8 fc fe ff ff       	call   ffffffff8000122a <_ZNK8Graphics5Color1bEv>
ffffffff8000132e:	88 03                	mov    %al,(%rbx)
ffffffff80001330:	90                   	nop
ffffffff80001331:	48 8b 5d f8          	mov    -0x8(%rbp),%rbx
ffffffff80001335:	c9                   	leave
ffffffff80001336:	c3                   	ret

ffffffff80001337 <_ZN3PIC4InitEv>:
ffffffff80001337:	55                   	push   %rbp
ffffffff80001338:	48 89 e5             	mov    %rsp,%rbp
ffffffff8000133b:	48 83 ec 10          	sub    $0x10,%rsp
ffffffff8000133f:	48 8d 45 fc          	lea    -0x4(%rbp),%rax
ffffffff80001343:	be 20 00 00 00       	mov    $0x20,%esi
ffffffff80001348:	48 89 c7             	mov    %rax,%rdi
ffffffff8000134b:	e8 bc fd ff ff       	call   ffffffff8000110c <_ZN4PortIhEC1Et>
ffffffff80001350:	48 8d 45 fa          	lea    -0x6(%rbp),%rax
ffffffff80001354:	be 21 00 00 00       	mov    $0x21,%esi
ffffffff80001359:	48 89 c7             	mov    %rax,%rdi
ffffffff8000135c:	e8 ab fd ff ff       	call   ffffffff8000110c <_ZN4PortIhEC1Et>
ffffffff80001361:	48 8d 45 f8          	lea    -0x8(%rbp),%rax
ffffffff80001365:	be a0 00 00 00       	mov    $0xa0,%esi
ffffffff8000136a:	48 89 c7             	mov    %rax,%rdi
ffffffff8000136d:	e8 9a fd ff ff       	call   ffffffff8000110c <_ZN4PortIhEC1Et>
ffffffff80001372:	48 8d 45 f6          	lea    -0xa(%rbp),%rax
ffffffff80001376:	be a1 00 00 00       	mov    $0xa1,%esi
ffffffff8000137b:	48 89 c7             	mov    %rax,%rdi
ffffffff8000137e:	e8 89 fd ff ff       	call   ffffffff8000110c <_ZN4PortIhEC1Et>
ffffffff80001383:	48 8d 45 fa          	lea    -0x6(%rbp),%rax
ffffffff80001387:	48 89 c7             	mov    %rax,%rdi
ffffffff8000138a:	e8 f9 01 00 00       	call   ffffffff80001588 <_ZN4PortIhE4ReadEv>
ffffffff8000138f:	88 45 ff             	mov    %al,-0x1(%rbp)
ffffffff80001392:	48 8d 45 f6          	lea    -0xa(%rbp),%rax
ffffffff80001396:	48 89 c7             	mov    %rax,%rdi
ffffffff80001399:	e8 ea 01 00 00       	call   ffffffff80001588 <_ZN4PortIhE4ReadEv>
ffffffff8000139e:	88 45 fe             	mov    %al,-0x2(%rbp)
ffffffff800013a1:	48 8d 45 fc          	lea    -0x4(%rbp),%rax
ffffffff800013a5:	be 11 00 00 00       	mov    $0x11,%esi
ffffffff800013aa:	48 89 c7             	mov    %rax,%rdi
ffffffff800013ad:	e8 7a fd ff ff       	call   ffffffff8000112c <_ZN4PortIhE5WriteEh>
ffffffff800013b2:	48 8d 45 f8          	lea    -0x8(%rbp),%rax
ffffffff800013b6:	be 11 00 00 00       	mov    $0x11,%esi
ffffffff800013bb:	48 89 c7             	mov    %rax,%rdi
ffffffff800013be:	e8 69 fd ff ff       	call   ffffffff8000112c <_ZN4PortIhE5WriteEh>
ffffffff800013c3:	48 8d 45 fa          	lea    -0x6(%rbp),%rax
ffffffff800013c7:	be 20 00 00 00       	mov    $0x20,%esi
ffffffff800013cc:	48 89 c7             	mov    %rax,%rdi
ffffffff800013cf:	e8 58 fd ff ff       	call   ffffffff8000112c <_ZN4PortIhE5WriteEh>
ffffffff800013d4:	48 8d 45 f6          	lea    -0xa(%rbp),%rax
ffffffff800013d8:	be 28 00 00 00       	mov    $0x28,%esi
ffffffff800013dd:	48 89 c7             	mov    %rax,%rdi
ffffffff800013e0:	e8 47 fd ff ff       	call   ffffffff8000112c <_ZN4PortIhE5WriteEh>
ffffffff800013e5:	48 8d 45 fa          	lea    -0x6(%rbp),%rax
ffffffff800013e9:	be 04 00 00 00       	mov    $0x4,%esi
ffffffff800013ee:	48 89 c7             	mov    %rax,%rdi
ffffffff800013f1:	e8 36 fd ff ff       	call   ffffffff8000112c <_ZN4PortIhE5WriteEh>
ffffffff800013f6:	48 8d 45 f6          	lea    -0xa(%rbp),%rax
ffffffff800013fa:	be 02 00 00 00       	mov    $0x2,%esi
ffffffff800013ff:	48 89 c7             	mov    %rax,%rdi
ffffffff80001402:	e8 25 fd ff ff       	call   ffffffff8000112c <_ZN4PortIhE5WriteEh>
ffffffff80001407:	48 8d 45 fa          	lea    -0x6(%rbp),%rax
ffffffff8000140b:	be 01 00 00 00       	mov    $0x1,%esi
ffffffff80001410:	48 89 c7             	mov    %rax,%rdi
ffffffff80001413:	e8 14 fd ff ff       	call   ffffffff8000112c <_ZN4PortIhE5WriteEh>
ffffffff80001418:	48 8d 45 f6          	lea    -0xa(%rbp),%rax
ffffffff8000141c:	be 01 00 00 00       	mov    $0x1,%esi
ffffffff80001421:	48 89 c7             	mov    %rax,%rdi
ffffffff80001424:	e8 03 fd ff ff       	call   ffffffff8000112c <_ZN4PortIhE5WriteEh>
ffffffff80001429:	0f b6 55 ff          	movzbl -0x1(%rbp),%edx
ffffffff8000142d:	48 8d 45 fa          	lea    -0x6(%rbp),%rax
ffffffff80001431:	89 d6                	mov    %edx,%esi
ffffffff80001433:	48 89 c7             	mov    %rax,%rdi
ffffffff80001436:	e8 f1 fc ff ff       	call   ffffffff8000112c <_ZN4PortIhE5WriteEh>
ffffffff8000143b:	0f b6 55 fe          	movzbl -0x2(%rbp),%edx
ffffffff8000143f:	48 8d 45 f6          	lea    -0xa(%rbp),%rax
ffffffff80001443:	89 d6                	mov    %edx,%esi
ffffffff80001445:	48 89 c7             	mov    %rax,%rdi
ffffffff80001448:	e8 df fc ff ff       	call   ffffffff8000112c <_ZN4PortIhE5WriteEh>
ffffffff8000144d:	90                   	nop
ffffffff8000144e:	c9                   	leave
ffffffff8000144f:	c3                   	ret

ffffffff80001450 <_ZN3PIC7SendEOIEh>:
ffffffff80001450:	55                   	push   %rbp
ffffffff80001451:	48 89 e5             	mov    %rsp,%rbp
ffffffff80001454:	48 83 ec 20          	sub    $0x20,%rsp
ffffffff80001458:	89 f8                	mov    %edi,%eax
ffffffff8000145a:	88 45 ec             	mov    %al,-0x14(%rbp)
ffffffff8000145d:	48 8d 45 fe          	lea    -0x2(%rbp),%rax
ffffffff80001461:	be 20 00 00 00       	mov    $0x20,%esi
ffffffff80001466:	48 89 c7             	mov    %rax,%rdi
ffffffff80001469:	e8 9e fc ff ff       	call   ffffffff8000110c <_ZN4PortIhEC1Et>
ffffffff8000146e:	48 8d 45 fc          	lea    -0x4(%rbp),%rax
ffffffff80001472:	be a0 00 00 00       	mov    $0xa0,%esi
ffffffff80001477:	48 89 c7             	mov    %rax,%rdi
ffffffff8000147a:	e8 8d fc ff ff       	call   ffffffff8000110c <_ZN4PortIhEC1Et>
ffffffff8000147f:	80 7d ec 07          	cmpb   $0x7,-0x14(%rbp)
ffffffff80001483:	76 11                	jbe    ffffffff80001496 <_ZN3PIC7SendEOIEh+0x46>
ffffffff80001485:	48 8d 45 fc          	lea    -0x4(%rbp),%rax
ffffffff80001489:	be 20 00 00 00       	mov    $0x20,%esi
ffffffff8000148e:	48 89 c7             	mov    %rax,%rdi
ffffffff80001491:	e8 96 fc ff ff       	call   ffffffff8000112c <_ZN4PortIhE5WriteEh>
ffffffff80001496:	48 8d 45 fe          	lea    -0x2(%rbp),%rax
ffffffff8000149a:	be 20 00 00 00       	mov    $0x20,%esi
ffffffff8000149f:	48 89 c7             	mov    %rax,%rdi
ffffffff800014a2:	e8 85 fc ff ff       	call   ffffffff8000112c <_ZN4PortIhE5WriteEh>
ffffffff800014a7:	90                   	nop
ffffffff800014a8:	c9                   	leave
ffffffff800014a9:	c3                   	ret

ffffffff800014aa <_ZN3PIC4MaskEh>:
ffffffff800014aa:	55                   	push   %rbp
ffffffff800014ab:	48 89 e5             	mov    %rsp,%rbp
ffffffff800014ae:	48 83 ec 20          	sub    $0x20,%rsp
ffffffff800014b2:	89 f8                	mov    %edi,%eax
ffffffff800014b4:	88 45 ec             	mov    %al,-0x14(%rbp)
ffffffff800014b7:	80 7d ec 07          	cmpb   $0x7,-0x14(%rbp)
ffffffff800014bb:	77 07                	ja     ffffffff800014c4 <_ZN3PIC4MaskEh+0x1a>
ffffffff800014bd:	ba 21 00 00 00       	mov    $0x21,%edx
ffffffff800014c2:	eb 05                	jmp    ffffffff800014c9 <_ZN3PIC4MaskEh+0x1f>
ffffffff800014c4:	ba a1 00 00 00       	mov    $0xa1,%edx
ffffffff800014c9:	48 8d 45 fc          	lea    -0x4(%rbp),%rax
ffffffff800014cd:	89 d6                	mov    %edx,%esi
ffffffff800014cf:	48 89 c7             	mov    %rax,%rdi
ffffffff800014d2:	e8 35 fc ff ff       	call   ffffffff8000110c <_ZN4PortIhEC1Et>
ffffffff800014d7:	80 7d ec 07          	cmpb   $0x7,-0x14(%rbp)
ffffffff800014db:	76 04                	jbe    ffffffff800014e1 <_ZN3PIC4MaskEh+0x37>
ffffffff800014dd:	80 6d ec 08          	subb   $0x8,-0x14(%rbp)
ffffffff800014e1:	48 8d 45 fc          	lea    -0x4(%rbp),%rax
ffffffff800014e5:	48 89 c7             	mov    %rax,%rdi
ffffffff800014e8:	e8 9b 00 00 00       	call   ffffffff80001588 <_ZN4PortIhE4ReadEv>
ffffffff800014ed:	89 c6                	mov    %eax,%esi
ffffffff800014ef:	0f b6 45 ec          	movzbl -0x14(%rbp),%eax
ffffffff800014f3:	ba 01 00 00 00       	mov    $0x1,%edx
ffffffff800014f8:	89 c1                	mov    %eax,%ecx
ffffffff800014fa:	d3 e2                	shl    %cl,%edx
ffffffff800014fc:	89 d0                	mov    %edx,%eax
ffffffff800014fe:	09 f0                	or     %esi,%eax
ffffffff80001500:	88 45 ff             	mov    %al,-0x1(%rbp)
ffffffff80001503:	0f b6 55 ff          	movzbl -0x1(%rbp),%edx
ffffffff80001507:	48 8d 45 fc          	lea    -0x4(%rbp),%rax
ffffffff8000150b:	89 d6                	mov    %edx,%esi
ffffffff8000150d:	48 89 c7             	mov    %rax,%rdi
ffffffff80001510:	e8 17 fc ff ff       	call   ffffffff8000112c <_ZN4PortIhE5WriteEh>
ffffffff80001515:	90                   	nop
ffffffff80001516:	c9                   	leave
ffffffff80001517:	c3                   	ret

ffffffff80001518 <_ZN3PIC6UnmaskEh>:
ffffffff80001518:	55                   	push   %rbp
ffffffff80001519:	48 89 e5             	mov    %rsp,%rbp
ffffffff8000151c:	48 83 ec 20          	sub    $0x20,%rsp
ffffffff80001520:	89 f8                	mov    %edi,%eax
ffffffff80001522:	88 45 ec             	mov    %al,-0x14(%rbp)
ffffffff80001525:	80 7d ec 07          	cmpb   $0x7,-0x14(%rbp)
ffffffff80001529:	77 07                	ja     ffffffff80001532 <_ZN3PIC6UnmaskEh+0x1a>
ffffffff8000152b:	ba 21 00 00 00       	mov    $0x21,%edx
ffffffff80001530:	eb 05                	jmp    ffffffff80001537 <_ZN3PIC6UnmaskEh+0x1f>
ffffffff80001532:	ba a1 00 00 00       	mov    $0xa1,%edx
ffffffff80001537:	48 8d 45 fc          	lea    -0x4(%rbp),%rax
ffffffff8000153b:	89 d6                	mov    %edx,%esi
ffffffff8000153d:	48 89 c7             	mov    %rax,%rdi
ffffffff80001540:	e8 c7 fb ff ff       	call   ffffffff8000110c <_ZN4PortIhEC1Et>
ffffffff80001545:	80 7d ec 07          	cmpb   $0x7,-0x14(%rbp)
ffffffff80001549:	76 04                	jbe    ffffffff8000154f <_ZN3PIC6UnmaskEh+0x37>
ffffffff8000154b:	80 6d ec 08          	subb   $0x8,-0x14(%rbp)
ffffffff8000154f:	48 8d 45 fc          	lea    -0x4(%rbp),%rax
ffffffff80001553:	48 89 c7             	mov    %rax,%rdi
ffffffff80001556:	e8 2d 00 00 00       	call   ffffffff80001588 <_ZN4PortIhE4ReadEv>
ffffffff8000155b:	89 c6                	mov    %eax,%esi
ffffffff8000155d:	0f b6 45 ec          	movzbl -0x14(%rbp),%eax
ffffffff80001561:	ba 01 00 00 00       	mov    $0x1,%edx
ffffffff80001566:	89 c1                	mov    %eax,%ecx
ffffffff80001568:	d3 e2                	shl    %cl,%edx
ffffffff8000156a:	89 d0                	mov    %edx,%eax
ffffffff8000156c:	f7 d0                	not    %eax
ffffffff8000156e:	21 f0                	and    %esi,%eax
ffffffff80001570:	88 45 ff             	mov    %al,-0x1(%rbp)
ffffffff80001573:	0f b6 55 ff          	movzbl -0x1(%rbp),%edx
ffffffff80001577:	48 8d 45 fc          	lea    -0x4(%rbp),%rax
ffffffff8000157b:	89 d6                	mov    %edx,%esi
ffffffff8000157d:	48 89 c7             	mov    %rax,%rdi
ffffffff80001580:	e8 a7 fb ff ff       	call   ffffffff8000112c <_ZN4PortIhE5WriteEh>
ffffffff80001585:	90                   	nop
ffffffff80001586:	c9                   	leave
ffffffff80001587:	c3                   	ret

ffffffff80001588 <_ZN4PortIhE4ReadEv>:
ffffffff80001588:	55                   	push   %rbp
ffffffff80001589:	48 89 e5             	mov    %rsp,%rbp
ffffffff8000158c:	48 83 ec 18          	sub    $0x18,%rsp
ffffffff80001590:	48 89 7d e8          	mov    %rdi,-0x18(%rbp)
ffffffff80001594:	48 8b 45 e8          	mov    -0x18(%rbp),%rax
ffffffff80001598:	0f b7 00             	movzwl (%rax),%eax
ffffffff8000159b:	89 c2                	mov    %eax,%edx
ffffffff8000159d:	ec                   	in     (%dx),%al
ffffffff8000159e:	88 45 ff             	mov    %al,-0x1(%rbp)
ffffffff800015a1:	0f b6 45 ff          	movzbl -0x1(%rbp),%eax
ffffffff800015a5:	c9                   	leave
ffffffff800015a6:	c3                   	ret

ffffffff800015a7 <_ZnwmPc>:
ffffffff800015a7:	55                   	push   %rbp
ffffffff800015a8:	48 89 e5             	mov    %rsp,%rbp
ffffffff800015ab:	48 83 ec 10          	sub    $0x10,%rsp
ffffffff800015af:	48 89 7d f8          	mov    %rdi,-0x8(%rbp)
ffffffff800015b3:	48 89 75 f0          	mov    %rsi,-0x10(%rbp)
ffffffff800015b7:	48 8b 45 f0          	mov    -0x10(%rbp),%rax
ffffffff800015bb:	c9                   	leave
ffffffff800015bc:	c3                   	ret

ffffffff800015bd <_ZnamPc>:
ffffffff800015bd:	55                   	push   %rbp
ffffffff800015be:	48 89 e5             	mov    %rsp,%rbp
ffffffff800015c1:	48 83 ec 10          	sub    $0x10,%rsp
ffffffff800015c5:	48 89 7d f8          	mov    %rdi,-0x8(%rbp)
ffffffff800015c9:	48 89 75 f0          	mov    %rsi,-0x10(%rbp)
ffffffff800015cd:	48 8b 45 f0          	mov    -0x10(%rbp),%rax
ffffffff800015d1:	c9                   	leave
ffffffff800015d2:	c3                   	ret

ffffffff800015d3 <_ZN3PMM11BmpMarkUsedEPNS_12MemoryRegionEPvj>:
ffffffff800015d3:	55                   	push   %rbp
ffffffff800015d4:	48 89 e5             	mov    %rsp,%rbp
ffffffff800015d7:	48 83 ec 28          	sub    $0x28,%rsp
ffffffff800015db:	48 89 7d e8          	mov    %rdi,-0x18(%rbp)
ffffffff800015df:	48 89 75 e0          	mov    %rsi,-0x20(%rbp)
ffffffff800015e3:	89 55 dc             	mov    %edx,-0x24(%rbp)
ffffffff800015e6:	48 8b 45 e8          	mov    -0x18(%rbp),%rax
ffffffff800015ea:	48 8b 50 08          	mov    0x8(%rax),%rdx
ffffffff800015ee:	48 8b 45 e0          	mov    -0x20(%rbp),%rax
ffffffff800015f2:	48 29 d0             	sub    %rdx,%rax
ffffffff800015f5:	48 89 45 f0          	mov    %rax,-0x10(%rbp)
ffffffff800015f9:	48 8b 45 f0          	mov    -0x10(%rbp),%rax
ffffffff800015fd:	48 89 45 f8          	mov    %rax,-0x8(%rbp)
ffffffff80001601:	eb 4b                	jmp    ffffffff8000164e <_ZN3PMM11BmpMarkUsedEPNS_12MemoryRegionEPvj+0x7b>
ffffffff80001603:	48 8b 45 e8          	mov    -0x18(%rbp),%rax
ffffffff80001607:	48 8b 10             	mov    (%rax),%rdx
ffffffff8000160a:	48 8b 45 f8          	mov    -0x8(%rbp),%rax
ffffffff8000160e:	48 c1 e8 0f          	shr    $0xf,%rax
ffffffff80001612:	48 89 c6             	mov    %rax,%rsi
ffffffff80001615:	48 8d 04 32          	lea    (%rdx,%rsi,1),%rax
ffffffff80001619:	0f b6 00             	movzbl (%rax),%eax
ffffffff8000161c:	89 c7                	mov    %eax,%edi
ffffffff8000161e:	48 8b 45 f8          	mov    -0x8(%rbp),%rax
ffffffff80001622:	48 c1 e8 0c          	shr    $0xc,%rax
ffffffff80001626:	83 e0 07             	and    $0x7,%eax
ffffffff80001629:	ba 01 00 00 00       	mov    $0x1,%edx
ffffffff8000162e:	89 c1                	mov    %eax,%ecx
ffffffff80001630:	d3 e2                	shl    %cl,%edx
ffffffff80001632:	89 d0                	mov    %edx,%eax
ffffffff80001634:	f7 d0                	not    %eax
ffffffff80001636:	21 c7                	and    %eax,%edi
ffffffff80001638:	89 fa                	mov    %edi,%edx
ffffffff8000163a:	48 8b 45 e8          	mov    -0x18(%rbp),%rax
ffffffff8000163e:	48 8b 00             	mov    (%rax),%rax
ffffffff80001641:	48 01 f0             	add    %rsi,%rax
ffffffff80001644:	88 10                	mov    %dl,(%rax)
ffffffff80001646:	48 81 45 f8 00 10 00 	addq   $0x1000,-0x8(%rbp)
ffffffff8000164d:	00 
ffffffff8000164e:	8b 45 dc             	mov    -0x24(%rbp),%eax
ffffffff80001651:	c1 e0 0c             	shl    $0xc,%eax
ffffffff80001654:	89 c2                	mov    %eax,%edx
ffffffff80001656:	48 8b 45 f0          	mov    -0x10(%rbp),%rax
ffffffff8000165a:	48 01 d0             	add    %rdx,%rax
ffffffff8000165d:	48 39 45 f8          	cmp    %rax,-0x8(%rbp)
ffffffff80001661:	72 a0                	jb     ffffffff80001603 <_ZN3PMM11BmpMarkUsedEPNS_12MemoryRegionEPvj+0x30>
ffffffff80001663:	90                   	nop
ffffffff80001664:	90                   	nop
ffffffff80001665:	c9                   	leave
ffffffff80001666:	c3                   	ret

ffffffff80001667 <_ZN3PMM7BmpTestEPNS_12MemoryRegionEPvj>:
ffffffff80001667:	55                   	push   %rbp
ffffffff80001668:	48 89 e5             	mov    %rsp,%rbp
ffffffff8000166b:	48 83 ec 38          	sub    $0x38,%rsp
ffffffff8000166f:	48 89 7d d8          	mov    %rdi,-0x28(%rbp)
ffffffff80001673:	48 89 75 d0          	mov    %rsi,-0x30(%rbp)
ffffffff80001677:	89 55 cc             	mov    %edx,-0x34(%rbp)
ffffffff8000167a:	c6 45 ff 01          	movb   $0x1,-0x1(%rbp)
ffffffff8000167e:	48 8b 45 d8          	mov    -0x28(%rbp),%rax
ffffffff80001682:	48 8b 50 08          	mov    0x8(%rax),%rdx
ffffffff80001686:	48 8b 45 d0          	mov    -0x30(%rbp),%rax
ffffffff8000168a:	48 29 d0             	sub    %rdx,%rax
ffffffff8000168d:	48 89 45 e8          	mov    %rax,-0x18(%rbp)
ffffffff80001691:	48 8b 45 e8          	mov    -0x18(%rbp),%rax
ffffffff80001695:	48 89 45 f0          	mov    %rax,-0x10(%rbp)
ffffffff80001699:	eb 47                	jmp    ffffffff800016e2 <_ZN3PMM7BmpTestEPNS_12MemoryRegionEPvj+0x7b>
ffffffff8000169b:	48 8b 45 d8          	mov    -0x28(%rbp),%rax
ffffffff8000169f:	48 8b 10             	mov    (%rax),%rdx
ffffffff800016a2:	48 8b 45 f0          	mov    -0x10(%rbp),%rax
ffffffff800016a6:	48 c1 e8 0f          	shr    $0xf,%rax
ffffffff800016aa:	48 01 d0             	add    %rdx,%rax
ffffffff800016ad:	0f b6 00             	movzbl (%rax),%eax
ffffffff800016b0:	0f b6 d0             	movzbl %al,%edx
ffffffff800016b3:	48 8b 45 f0          	mov    -0x10(%rbp),%rax
ffffffff800016b7:	48 c1 e8 0c          	shr    $0xc,%rax
ffffffff800016bb:	83 e0 07             	and    $0x7,%eax
ffffffff800016be:	89 c1                	mov    %eax,%ecx
ffffffff800016c0:	d3 fa                	sar    %cl,%edx
ffffffff800016c2:	89 d0                	mov    %edx,%eax
ffffffff800016c4:	83 e0 01             	and    $0x1,%eax
ffffffff800016c7:	85 c0                	test   %eax,%eax
ffffffff800016c9:	0f 95 c0             	setne  %al
ffffffff800016cc:	88 45 ff             	mov    %al,-0x1(%rbp)
ffffffff800016cf:	0f b6 45 ff          	movzbl -0x1(%rbp),%eax
ffffffff800016d3:	83 f0 01             	xor    $0x1,%eax
ffffffff800016d6:	84 c0                	test   %al,%al
ffffffff800016d8:	75 1f                	jne    ffffffff800016f9 <_ZN3PMM7BmpTestEPNS_12MemoryRegionEPvj+0x92>
ffffffff800016da:	48 81 45 f0 00 10 00 	addq   $0x1000,-0x10(%rbp)
ffffffff800016e1:	00 
ffffffff800016e2:	8b 45 cc             	mov    -0x34(%rbp),%eax
ffffffff800016e5:	c1 e0 0c             	shl    $0xc,%eax
ffffffff800016e8:	89 c2                	mov    %eax,%edx
ffffffff800016ea:	48 8b 45 e8          	mov    -0x18(%rbp),%rax
ffffffff800016ee:	48 01 d0             	add    %rdx,%rax
ffffffff800016f1:	48 39 45 f0          	cmp    %rax,-0x10(%rbp)
ffffffff800016f5:	72 a4                	jb     ffffffff8000169b <_ZN3PMM7BmpTestEPNS_12MemoryRegionEPvj+0x34>
ffffffff800016f7:	eb 01                	jmp    ffffffff800016fa <_ZN3PMM7BmpTestEPNS_12MemoryRegionEPvj+0x93>
ffffffff800016f9:	90                   	nop
ffffffff800016fa:	0f b6 45 ff          	movzbl -0x1(%rbp),%eax
ffffffff800016fe:	c9                   	leave
ffffffff800016ff:	c3                   	ret

ffffffff80001700 <_ZN3PMM4InitEv>:
ffffffff80001700:	55                   	push   %rbp
ffffffff80001701:	48 89 e5             	mov    %rsp,%rbp
ffffffff80001704:	53                   	push   %rbx
ffffffff80001705:	48 83 ec 48          	sub    $0x48,%rsp
ffffffff80001709:	48 8b 05 c8 17 00 00 	mov    0x17c8(%rip),%rax        # ffffffff80002ed8 <_ZN3PMML13MemmapRequestE+0x18>
ffffffff80001710:	48 89 05 d1 2b 00 00 	mov    %rax,0x2bd1(%rip)        # ffffffff800042e8 <_ZN3PMM6MemMapE>
ffffffff80001717:	48 c7 45 e8 00 00 00 	movq   $0x0,-0x18(%rbp)
ffffffff8000171e:	00 
ffffffff8000171f:	e9 ac 01 00 00       	jmp    ffffffff800018d0 <_ZN3PMM4InitEv+0x1d0>
ffffffff80001724:	48 8b 05 ad 17 00 00 	mov    0x17ad(%rip),%rax        # ffffffff80002ed8 <_ZN3PMML13MemmapRequestE+0x18>
ffffffff8000172b:	48 8b 48 08          	mov    0x8(%rax),%rcx
ffffffff8000172f:	48 8b 55 e8          	mov    -0x18(%rbp),%rdx
ffffffff80001733:	48 89 d0             	mov    %rdx,%rax
ffffffff80001736:	48 01 c0             	add    %rax,%rax
ffffffff80001739:	48 01 d0             	add    %rdx,%rax
ffffffff8000173c:	48 c1 e0 03          	shl    $0x3,%rax
ffffffff80001740:	48 01 c8             	add    %rcx,%rax
ffffffff80001743:	48 89 45 e0          	mov    %rax,-0x20(%rbp)
ffffffff80001747:	48 8b 45 e0          	mov    -0x20(%rbp),%rax
ffffffff8000174b:	48 8b 50 08          	mov    0x8(%rax),%rdx
ffffffff8000174f:	48 8b 45 e0          	mov    -0x20(%rbp),%rax
ffffffff80001753:	48 8b 40 10          	mov    0x10(%rax),%rax
ffffffff80001757:	48 01 d0             	add    %rdx,%rax
ffffffff8000175a:	48 3d ff ff 0f 00    	cmp    $0xfffff,%rax
ffffffff80001760:	0f 86 64 01 00 00    	jbe    ffffffff800018ca <_ZN3PMM4InitEv+0x1ca>
ffffffff80001766:	48 8b 45 e0          	mov    -0x20(%rbp),%rax
ffffffff8000176a:	8b 00                	mov    (%rax),%eax
ffffffff8000176c:	85 c0                	test   %eax,%eax
ffffffff8000176e:	0f 85 57 01 00 00    	jne    ffffffff800018cb <_ZN3PMM4InitEv+0x1cb>
ffffffff80001774:	48 8b 45 e0          	mov    -0x20(%rbp),%rax
ffffffff80001778:	48 8b 40 08          	mov    0x8(%rax),%rax
ffffffff8000177c:	48 89 45 b8          	mov    %rax,-0x48(%rbp)
ffffffff80001780:	48 ba 00 00 00 00 00 	movabs $0xffff800000000000,%rdx
ffffffff80001787:	80 ff ff 
ffffffff8000178a:	48 8b 45 b8          	mov    -0x48(%rbp),%rax
ffffffff8000178e:	48 01 d0             	add    %rdx,%rax
ffffffff80001791:	48 89 c6             	mov    %rax,%rsi
ffffffff80001794:	bf 30 00 00 00       	mov    $0x30,%edi
ffffffff80001799:	e8 09 fe ff ff       	call   ffffffff800015a7 <_ZnwmPc>
ffffffff8000179e:	48 89 c3             	mov    %rax,%rbx
ffffffff800017a1:	48 8b 45 e0          	mov    -0x20(%rbp),%rax
ffffffff800017a5:	48 8b 40 10          	mov    0x10(%rax),%rax
ffffffff800017a9:	48 89 c6             	mov    %rax,%rsi
ffffffff800017ac:	48 89 df             	mov    %rbx,%rdi
ffffffff800017af:	e8 92 05 00 00       	call   ffffffff80001d46 <_ZN3PMM12MemoryRegionC1Em>
ffffffff800017b4:	48 89 5d d8          	mov    %rbx,-0x28(%rbp)
ffffffff800017b8:	48 8b 45 d8          	mov    -0x28(%rbp),%rax
ffffffff800017bc:	48 8b 40 20          	mov    0x20(%rax),%rax
ffffffff800017c0:	48 c1 e8 0f          	shr    $0xf,%rax
ffffffff800017c4:	48 89 45 d0          	mov    %rax,-0x30(%rbp)
ffffffff800017c8:	48 8b 45 e0          	mov    -0x20(%rbp),%rax
ffffffff800017cc:	48 8b 40 08          	mov    0x8(%rax),%rax
ffffffff800017d0:	48 83 c0 30          	add    $0x30,%rax
ffffffff800017d4:	48 89 45 c0          	mov    %rax,-0x40(%rbp)
ffffffff800017d8:	48 ba 00 00 00 00 00 	movabs $0xffff800000000000,%rdx
ffffffff800017df:	80 ff ff 
ffffffff800017e2:	48 8b 45 c0          	mov    -0x40(%rbp),%rax
ffffffff800017e6:	48 01 d0             	add    %rdx,%rax
ffffffff800017e9:	48 89 c2             	mov    %rax,%rdx
ffffffff800017ec:	48 8b 45 d0          	mov    -0x30(%rbp),%rax
ffffffff800017f0:	48 89 d6             	mov    %rdx,%rsi
ffffffff800017f3:	48 89 c7             	mov    %rax,%rdi
ffffffff800017f6:	e8 c2 fd ff ff       	call   ffffffff800015bd <_ZnamPc>
ffffffff800017fb:	48 8b 55 d8          	mov    -0x28(%rbp),%rdx
ffffffff800017ff:	48 89 02             	mov    %rax,(%rdx)
ffffffff80001802:	48 8b 45 e0          	mov    -0x20(%rbp),%rax
ffffffff80001806:	48 8b 50 08          	mov    0x8(%rax),%rdx
ffffffff8000180a:	48 8b 45 d0          	mov    -0x30(%rbp),%rax
ffffffff8000180e:	48 01 d0             	add    %rdx,%rax
ffffffff80001811:	48 83 c0 30          	add    $0x30,%rax
ffffffff80001815:	48 25 00 f0 ff ff    	and    $0xfffffffffffff000,%rax
ffffffff8000181b:	48 05 00 10 00 00    	add    $0x1000,%rax
ffffffff80001821:	48 89 c2             	mov    %rax,%rdx
ffffffff80001824:	48 8b 45 d8          	mov    -0x28(%rbp),%rax
ffffffff80001828:	48 89 50 08          	mov    %rdx,0x8(%rax)
ffffffff8000182c:	48 8b 45 e0          	mov    -0x20(%rbp),%rax
ffffffff80001830:	48 8b 50 08          	mov    0x8(%rax),%rdx
ffffffff80001834:	48 8b 45 d0          	mov    -0x30(%rbp),%rax
ffffffff80001838:	48 01 d0             	add    %rdx,%rax
ffffffff8000183b:	48 83 c0 30          	add    $0x30,%rax
ffffffff8000183f:	48 89 45 c8          	mov    %rax,-0x38(%rbp)
ffffffff80001843:	48 8b 45 c8          	mov    -0x38(%rbp),%rax
ffffffff80001847:	48 05 ff 0f 00 00    	add    $0xfff,%rax
ffffffff8000184d:	48 c1 e8 0c          	shr    $0xc,%rax
ffffffff80001851:	89 c2                	mov    %eax,%edx
ffffffff80001853:	48 8b 45 d8          	mov    -0x28(%rbp),%rax
ffffffff80001857:	48 8b 40 20          	mov    0x20(%rax),%rax
ffffffff8000185b:	89 d1                	mov    %edx,%ecx
ffffffff8000185d:	48 29 c8             	sub    %rcx,%rax
ffffffff80001860:	48 89 c2             	mov    %rax,%rdx
ffffffff80001863:	48 8b 45 d8          	mov    -0x28(%rbp),%rax
ffffffff80001867:	48 89 50 20          	mov    %rdx,0x20(%rax)
ffffffff8000186b:	48 8b 45 d8          	mov    -0x28(%rbp),%rax
ffffffff8000186f:	48 8b 50 20          	mov    0x20(%rax),%rdx
ffffffff80001873:	48 8b 45 d8          	mov    -0x28(%rbp),%rax
ffffffff80001877:	48 89 50 28          	mov    %rdx,0x28(%rax)
ffffffff8000187b:	48 8b 45 d0          	mov    -0x30(%rbp),%rax
ffffffff8000187f:	89 c2                	mov    %eax,%edx
ffffffff80001881:	48 8b 45 d8          	mov    -0x28(%rbp),%rax
ffffffff80001885:	48 8b 00             	mov    (%rax),%rax
ffffffff80001888:	be ff 00 00 00       	mov    $0xff,%esi
ffffffff8000188d:	48 89 c7             	mov    %rax,%rdi
ffffffff80001890:	e8 f3 04 00 00       	call   ffffffff80001d88 <_Z6memsetPhhj>
ffffffff80001895:	48 8b 05 54 2a 00 00 	mov    0x2a54(%rip),%rax        # ffffffff800042f0 <_ZN3PMML7regionsE>
ffffffff8000189c:	48 85 c0             	test   %rax,%rax
ffffffff8000189f:	75 0d                	jne    ffffffff800018ae <_ZN3PMM4InitEv+0x1ae>
ffffffff800018a1:	48 8b 45 d8          	mov    -0x28(%rbp),%rax
ffffffff800018a5:	48 89 05 44 2a 00 00 	mov    %rax,0x2a44(%rip)        # ffffffff800042f0 <_ZN3PMML7regionsE>
ffffffff800018ac:	eb 1d                	jmp    ffffffff800018cb <_ZN3PMM4InitEv+0x1cb>
ffffffff800018ae:	48 8b 15 3b 2a 00 00 	mov    0x2a3b(%rip),%rdx        # ffffffff800042f0 <_ZN3PMML7regionsE>
ffffffff800018b5:	48 8b 45 d8          	mov    -0x28(%rbp),%rax
ffffffff800018b9:	48 89 50 18          	mov    %rdx,0x18(%rax)
ffffffff800018bd:	48 8b 45 d8          	mov    -0x28(%rbp),%rax
ffffffff800018c1:	48 89 05 28 2a 00 00 	mov    %rax,0x2a28(%rip)        # ffffffff800042f0 <_ZN3PMML7regionsE>
ffffffff800018c8:	eb 01                	jmp    ffffffff800018cb <_ZN3PMM4InitEv+0x1cb>
ffffffff800018ca:	90                   	nop
ffffffff800018cb:	48 83 45 e8 01       	addq   $0x1,-0x18(%rbp)
ffffffff800018d0:	48 8b 05 01 16 00 00 	mov    0x1601(%rip),%rax        # ffffffff80002ed8 <_ZN3PMML13MemmapRequestE+0x18>
ffffffff800018d7:	48 8b 00             	mov    (%rax),%rax
ffffffff800018da:	48 39 45 e8          	cmp    %rax,-0x18(%rbp)
ffffffff800018de:	0f 92 c0             	setb   %al
ffffffff800018e1:	84 c0                	test   %al,%al
ffffffff800018e3:	0f 85 3b fe ff ff    	jne    ffffffff80001724 <_ZN3PMM4InitEv+0x24>
ffffffff800018e9:	90                   	nop
ffffffff800018ea:	90                   	nop
ffffffff800018eb:	48 8b 5d f8          	mov    -0x8(%rbp),%rbx
ffffffff800018ef:	c9                   	leave
ffffffff800018f0:	c3                   	ret

ffffffff800018f1 <_ZN3PMM7GetPageEv>:
ffffffff800018f1:	55                   	push   %rbp
ffffffff800018f2:	48 89 e5             	mov    %rsp,%rbp
ffffffff800018f5:	bf 01 00 00 00       	mov    $0x1,%edi
ffffffff800018fa:	e8 a0 00 00 00       	call   ffffffff8000199f <_ZN3PMM8GetPagesEj>
ffffffff800018ff:	5d                   	pop    %rbp
ffffffff80001900:	c3                   	ret

ffffffff80001901 <_ZN3PMM8FreePageEPv>:
ffffffff80001901:	55                   	push   %rbp
ffffffff80001902:	48 89 e5             	mov    %rsp,%rbp
ffffffff80001905:	48 83 ec 10          	sub    $0x10,%rsp
ffffffff80001909:	48 89 7d f8          	mov    %rdi,-0x8(%rbp)
ffffffff8000190d:	48 8b 45 f8          	mov    -0x8(%rbp),%rax
ffffffff80001911:	be 01 00 00 00       	mov    $0x1,%esi
ffffffff80001916:	48 89 c7             	mov    %rax,%rdi
ffffffff80001919:	e8 78 01 00 00       	call   ffffffff80001a96 <_ZN3PMM9FreePagesEPvj>
ffffffff8000191e:	90                   	nop
ffffffff8000191f:	c9                   	leave
ffffffff80001920:	c3                   	ret

ffffffff80001921 <_ZN3PMM5AllocEPNS_12MemoryRegionEPvj>:
ffffffff80001921:	55                   	push   %rbp
ffffffff80001922:	48 89 e5             	mov    %rsp,%rbp
ffffffff80001925:	48 83 ec 18          	sub    $0x18,%rsp
ffffffff80001929:	48 89 7d f8          	mov    %rdi,-0x8(%rbp)
ffffffff8000192d:	48 89 75 f0          	mov    %rsi,-0x10(%rbp)
ffffffff80001931:	89 55 ec             	mov    %edx,-0x14(%rbp)
ffffffff80001934:	8b 55 ec             	mov    -0x14(%rbp),%edx
ffffffff80001937:	48 8b 4d f0          	mov    -0x10(%rbp),%rcx
ffffffff8000193b:	48 8b 45 f8          	mov    -0x8(%rbp),%rax
ffffffff8000193f:	48 89 ce             	mov    %rcx,%rsi
ffffffff80001942:	48 89 c7             	mov    %rax,%rdi
ffffffff80001945:	e8 1d fd ff ff       	call   ffffffff80001667 <_ZN3PMM7BmpTestEPNS_12MemoryRegionEPvj>
ffffffff8000194a:	83 f0 01             	xor    $0x1,%eax
ffffffff8000194d:	84 c0                	test   %al,%al
ffffffff8000194f:	74 07                	je     ffffffff80001958 <_ZN3PMM5AllocEPNS_12MemoryRegionEPvj+0x37>
ffffffff80001951:	b8 00 00 00 00       	mov    $0x0,%eax
ffffffff80001956:	eb 45                	jmp    ffffffff8000199d <_ZN3PMM5AllocEPNS_12MemoryRegionEPvj+0x7c>
ffffffff80001958:	8b 55 ec             	mov    -0x14(%rbp),%edx
ffffffff8000195b:	48 8b 4d f0          	mov    -0x10(%rbp),%rcx
ffffffff8000195f:	48 8b 45 f8          	mov    -0x8(%rbp),%rax
ffffffff80001963:	48 89 ce             	mov    %rcx,%rsi
ffffffff80001966:	48 89 c7             	mov    %rax,%rdi
ffffffff80001969:	e8 65 fc ff ff       	call   ffffffff800015d3 <_ZN3PMM11BmpMarkUsedEPNS_12MemoryRegionEPvj>
ffffffff8000196e:	48 8b 45 f8          	mov    -0x8(%rbp),%rax
ffffffff80001972:	48 8b 40 28          	mov    0x28(%rax),%rax
ffffffff80001976:	8b 55 ec             	mov    -0x14(%rbp),%edx
ffffffff80001979:	c1 e2 0c             	shl    $0xc,%edx
ffffffff8000197c:	89 d1                	mov    %edx,%ecx
ffffffff8000197e:	48 29 c8             	sub    %rcx,%rax
ffffffff80001981:	48 89 c2             	mov    %rax,%rdx
ffffffff80001984:	48 8b 45 f8          	mov    -0x8(%rbp),%rax
ffffffff80001988:	48 89 50 28          	mov    %rdx,0x28(%rax)
ffffffff8000198c:	48 8b 45 f8          	mov    -0x8(%rbp),%rax
ffffffff80001990:	48 8b 55 f0          	mov    -0x10(%rbp),%rdx
ffffffff80001994:	48 89 50 10          	mov    %rdx,0x10(%rax)
ffffffff80001998:	b8 01 00 00 00       	mov    $0x1,%eax
ffffffff8000199d:	c9                   	leave
ffffffff8000199e:	c3                   	ret

ffffffff8000199f <_ZN3PMM8GetPagesEj>:
ffffffff8000199f:	55                   	push   %rbp
ffffffff800019a0:	48 89 e5             	mov    %rsp,%rbp
ffffffff800019a3:	48 83 ec 28          	sub    $0x28,%rsp
ffffffff800019a7:	89 7d dc             	mov    %edi,-0x24(%rbp)
ffffffff800019aa:	83 7d dc 00          	cmpl   $0x0,-0x24(%rbp)
ffffffff800019ae:	75 0a                	jne    ffffffff800019ba <_ZN3PMM8GetPagesEj+0x1b>
ffffffff800019b0:	b8 00 00 00 00       	mov    $0x0,%eax
ffffffff800019b5:	e9 da 00 00 00       	jmp    ffffffff80001a94 <_ZN3PMM8GetPagesEj+0xf5>
ffffffff800019ba:	48 8b 05 2f 29 00 00 	mov    0x292f(%rip),%rax        # ffffffff800042f0 <_ZN3PMML7regionsE>
ffffffff800019c1:	48 89 45 f8          	mov    %rax,-0x8(%rbp)
ffffffff800019c5:	e9 ba 00 00 00       	jmp    ffffffff80001a84 <_ZN3PMM8GetPagesEj+0xe5>
ffffffff800019ca:	48 8b 45 f8          	mov    -0x8(%rbp),%rax
ffffffff800019ce:	48 8b 40 10          	mov    0x10(%rax),%rax
ffffffff800019d2:	48 85 c0             	test   %rax,%rax
ffffffff800019d5:	74 52                	je     ffffffff80001a29 <_ZN3PMM8GetPagesEj+0x8a>
ffffffff800019d7:	48 8b 45 f8          	mov    -0x8(%rbp),%rax
ffffffff800019db:	48 8b 40 10          	mov    0x10(%rax),%rax
ffffffff800019df:	48 89 45 f0          	mov    %rax,-0x10(%rbp)
ffffffff800019e3:	eb 2b                	jmp    ffffffff80001a10 <_ZN3PMM8GetPagesEj+0x71>
ffffffff800019e5:	8b 55 dc             	mov    -0x24(%rbp),%edx
ffffffff800019e8:	48 8b 4d f0          	mov    -0x10(%rbp),%rcx
ffffffff800019ec:	48 8b 45 f8          	mov    -0x8(%rbp),%rax
ffffffff800019f0:	48 89 ce             	mov    %rcx,%rsi
ffffffff800019f3:	48 89 c7             	mov    %rax,%rdi
ffffffff800019f6:	e8 26 ff ff ff       	call   ffffffff80001921 <_ZN3PMM5AllocEPNS_12MemoryRegionEPvj>
ffffffff800019fb:	84 c0                	test   %al,%al
ffffffff800019fd:	74 09                	je     ffffffff80001a08 <_ZN3PMM8GetPagesEj+0x69>
ffffffff800019ff:	48 8b 45 f0          	mov    -0x10(%rbp),%rax
ffffffff80001a03:	e9 8c 00 00 00       	jmp    ffffffff80001a94 <_ZN3PMM8GetPagesEj+0xf5>
ffffffff80001a08:	48 81 45 f0 00 10 00 	addq   $0x1000,-0x10(%rbp)
ffffffff80001a0f:	00 
ffffffff80001a10:	48 8b 45 f8          	mov    -0x8(%rbp),%rax
ffffffff80001a14:	48 8b 50 08          	mov    0x8(%rax),%rdx
ffffffff80001a18:	48 8b 45 f8          	mov    -0x8(%rbp),%rax
ffffffff80001a1c:	48 8b 40 20          	mov    0x20(%rax),%rax
ffffffff80001a20:	48 01 d0             	add    %rdx,%rax
ffffffff80001a23:	48 39 45 f0          	cmp    %rax,-0x10(%rbp)
ffffffff80001a27:	72 bc                	jb     ffffffff800019e5 <_ZN3PMM8GetPagesEj+0x46>
ffffffff80001a29:	48 8b 45 f8          	mov    -0x8(%rbp),%rax
ffffffff80001a2d:	48 8b 40 08          	mov    0x8(%rax),%rax
ffffffff80001a31:	48 89 45 e8          	mov    %rax,-0x18(%rbp)
ffffffff80001a35:	eb 28                	jmp    ffffffff80001a5f <_ZN3PMM8GetPagesEj+0xc0>
ffffffff80001a37:	8b 55 dc             	mov    -0x24(%rbp),%edx
ffffffff80001a3a:	48 8b 4d e8          	mov    -0x18(%rbp),%rcx
ffffffff80001a3e:	48 8b 45 f8          	mov    -0x8(%rbp),%rax
ffffffff80001a42:	48 89 ce             	mov    %rcx,%rsi
ffffffff80001a45:	48 89 c7             	mov    %rax,%rdi
ffffffff80001a48:	e8 d4 fe ff ff       	call   ffffffff80001921 <_ZN3PMM5AllocEPNS_12MemoryRegionEPvj>
ffffffff80001a4d:	84 c0                	test   %al,%al
ffffffff80001a4f:	74 06                	je     ffffffff80001a57 <_ZN3PMM8GetPagesEj+0xb8>
ffffffff80001a51:	48 8b 45 e8          	mov    -0x18(%rbp),%rax
ffffffff80001a55:	eb 3d                	jmp    ffffffff80001a94 <_ZN3PMM8GetPagesEj+0xf5>
ffffffff80001a57:	48 81 45 e8 00 10 00 	addq   $0x1000,-0x18(%rbp)
ffffffff80001a5e:	00 
ffffffff80001a5f:	48 8b 45 f8          	mov    -0x8(%rbp),%rax
ffffffff80001a63:	48 8b 50 08          	mov    0x8(%rax),%rdx
ffffffff80001a67:	48 8b 45 f8          	mov    -0x8(%rbp),%rax
ffffffff80001a6b:	48 8b 40 20          	mov    0x20(%rax),%rax
ffffffff80001a6f:	48 01 d0             	add    %rdx,%rax
ffffffff80001a72:	48 39 45 e8          	cmp    %rax,-0x18(%rbp)
ffffffff80001a76:	72 bf                	jb     ffffffff80001a37 <_ZN3PMM8GetPagesEj+0x98>
ffffffff80001a78:	48 8b 45 f8          	mov    -0x8(%rbp),%rax
ffffffff80001a7c:	48 8b 40 18          	mov    0x18(%rax),%rax
ffffffff80001a80:	48 89 45 f8          	mov    %rax,-0x8(%rbp)
ffffffff80001a84:	48 83 7d f8 00       	cmpq   $0x0,-0x8(%rbp)
ffffffff80001a89:	0f 85 3b ff ff ff    	jne    ffffffff800019ca <_ZN3PMM8GetPagesEj+0x2b>
ffffffff80001a8f:	b8 00 00 00 00       	mov    $0x0,%eax
ffffffff80001a94:	c9                   	leave
ffffffff80001a95:	c3                   	ret

ffffffff80001a96 <_ZN3PMM9FreePagesEPvj>:
ffffffff80001a96:	55                   	push   %rbp
ffffffff80001a97:	48 89 e5             	mov    %rsp,%rbp
ffffffff80001a9a:	48 83 ec 30          	sub    $0x30,%rsp
ffffffff80001a9e:	48 89 7d d8          	mov    %rdi,-0x28(%rbp)
ffffffff80001aa2:	89 75 d4             	mov    %esi,-0x2c(%rbp)
ffffffff80001aa5:	48 83 7d d8 00       	cmpq   $0x0,-0x28(%rbp)
ffffffff80001aaa:	0f 84 23 01 00 00    	je     ffffffff80001bd3 <_ZN3PMM9FreePagesEPvj+0x13d>
ffffffff80001ab0:	83 7d d4 00          	cmpl   $0x0,-0x2c(%rbp)
ffffffff80001ab4:	0f 84 19 01 00 00    	je     ffffffff80001bd3 <_ZN3PMM9FreePagesEPvj+0x13d>
ffffffff80001aba:	48 8b 05 2f 28 00 00 	mov    0x282f(%rip),%rax        # ffffffff800042f0 <_ZN3PMML7regionsE>
ffffffff80001ac1:	48 89 45 f8          	mov    %rax,-0x8(%rbp)
ffffffff80001ac5:	e9 fc 00 00 00       	jmp    ffffffff80001bc6 <_ZN3PMM9FreePagesEPvj+0x130>
ffffffff80001aca:	48 8b 45 f8          	mov    -0x8(%rbp),%rax
ffffffff80001ace:	48 8b 40 08          	mov    0x8(%rax),%rax
ffffffff80001ad2:	48 39 45 d8          	cmp    %rax,-0x28(%rbp)
ffffffff80001ad6:	0f 82 de 00 00 00    	jb     ffffffff80001bba <_ZN3PMM9FreePagesEPvj+0x124>
ffffffff80001adc:	48 8b 45 f8          	mov    -0x8(%rbp),%rax
ffffffff80001ae0:	48 8b 50 08          	mov    0x8(%rax),%rdx
ffffffff80001ae4:	48 8b 45 f8          	mov    -0x8(%rbp),%rax
ffffffff80001ae8:	48 8b 40 20          	mov    0x20(%rax),%rax
ffffffff80001aec:	48 01 d0             	add    %rdx,%rax
ffffffff80001aef:	48 39 45 d8          	cmp    %rax,-0x28(%rbp)
ffffffff80001af3:	0f 87 c1 00 00 00    	ja     ffffffff80001bba <_ZN3PMM9FreePagesEPvj+0x124>
ffffffff80001af9:	48 8b 45 d8          	mov    -0x28(%rbp),%rax
ffffffff80001afd:	48 89 45 f0          	mov    %rax,-0x10(%rbp)
ffffffff80001b01:	e9 99 00 00 00       	jmp    ffffffff80001b9f <_ZN3PMM9FreePagesEPvj+0x109>
ffffffff80001b06:	48 8b 4d f0          	mov    -0x10(%rbp),%rcx
ffffffff80001b0a:	48 8b 45 f8          	mov    -0x8(%rbp),%rax
ffffffff80001b0e:	ba 01 00 00 00       	mov    $0x1,%edx
ffffffff80001b13:	48 89 ce             	mov    %rcx,%rsi
ffffffff80001b16:	48 89 c7             	mov    %rax,%rdi
ffffffff80001b19:	e8 49 fb ff ff       	call   ffffffff80001667 <_ZN3PMM7BmpTestEPNS_12MemoryRegionEPvj>
ffffffff80001b1e:	83 f0 01             	xor    $0x1,%eax
ffffffff80001b21:	84 c0                	test   %al,%al
ffffffff80001b23:	74 1b                	je     ffffffff80001b40 <_ZN3PMM9FreePagesEPvj+0xaa>
ffffffff80001b25:	48 8b 45 f8          	mov    -0x8(%rbp),%rax
ffffffff80001b29:	48 8b 50 28          	mov    0x28(%rax),%rdx
ffffffff80001b2d:	8b 45 d4             	mov    -0x2c(%rbp),%eax
ffffffff80001b30:	c1 e0 0c             	shl    $0xc,%eax
ffffffff80001b33:	89 c0                	mov    %eax,%eax
ffffffff80001b35:	48 01 c2             	add    %rax,%rdx
ffffffff80001b38:	48 8b 45 f8          	mov    -0x8(%rbp),%rax
ffffffff80001b3c:	48 89 50 28          	mov    %rdx,0x28(%rax)
ffffffff80001b40:	48 8b 45 f8          	mov    -0x8(%rbp),%rax
ffffffff80001b44:	48 8b 40 08          	mov    0x8(%rax),%rax
ffffffff80001b48:	48 89 c2             	mov    %rax,%rdx
ffffffff80001b4b:	48 8b 45 f0          	mov    -0x10(%rbp),%rax
ffffffff80001b4f:	48 29 d0             	sub    %rdx,%rax
ffffffff80001b52:	48 89 45 e8          	mov    %rax,-0x18(%rbp)
ffffffff80001b56:	48 8b 45 f8          	mov    -0x8(%rbp),%rax
ffffffff80001b5a:	48 8b 10             	mov    (%rax),%rdx
ffffffff80001b5d:	48 8b 45 e8          	mov    -0x18(%rbp),%rax
ffffffff80001b61:	48 c1 e8 09          	shr    $0x9,%rax
ffffffff80001b65:	48 89 c6             	mov    %rax,%rsi
ffffffff80001b68:	48 8d 04 32          	lea    (%rdx,%rsi,1),%rax
ffffffff80001b6c:	0f b6 00             	movzbl (%rax),%eax
ffffffff80001b6f:	89 c7                	mov    %eax,%edi
ffffffff80001b71:	48 8b 45 e8          	mov    -0x18(%rbp),%rax
ffffffff80001b75:	48 c1 e8 0c          	shr    $0xc,%rax
ffffffff80001b79:	83 e0 07             	and    $0x7,%eax
ffffffff80001b7c:	ba 01 00 00 00       	mov    $0x1,%edx
ffffffff80001b81:	89 c1                	mov    %eax,%ecx
ffffffff80001b83:	d3 e2                	shl    %cl,%edx
ffffffff80001b85:	89 d0                	mov    %edx,%eax
ffffffff80001b87:	09 c7                	or     %eax,%edi
ffffffff80001b89:	89 fa                	mov    %edi,%edx
ffffffff80001b8b:	48 8b 45 f8          	mov    -0x8(%rbp),%rax
ffffffff80001b8f:	48 8b 00             	mov    (%rax),%rax
ffffffff80001b92:	48 01 f0             	add    %rsi,%rax
ffffffff80001b95:	88 10                	mov    %dl,(%rax)
ffffffff80001b97:	48 81 45 f0 00 10 00 	addq   $0x1000,-0x10(%rbp)
ffffffff80001b9e:	00 
ffffffff80001b9f:	8b 45 d4             	mov    -0x2c(%rbp),%eax
ffffffff80001ba2:	c1 e0 0c             	shl    $0xc,%eax
ffffffff80001ba5:	89 c2                	mov    %eax,%edx
ffffffff80001ba7:	48 8b 45 d8          	mov    -0x28(%rbp),%rax
ffffffff80001bab:	48 01 d0             	add    %rdx,%rax
ffffffff80001bae:	48 39 45 f0          	cmp    %rax,-0x10(%rbp)
ffffffff80001bb2:	0f 82 4e ff ff ff    	jb     ffffffff80001b06 <_ZN3PMM9FreePagesEPvj+0x70>
ffffffff80001bb8:	eb 1a                	jmp    ffffffff80001bd4 <_ZN3PMM9FreePagesEPvj+0x13e>
ffffffff80001bba:	48 8b 45 f8          	mov    -0x8(%rbp),%rax
ffffffff80001bbe:	48 8b 40 18          	mov    0x18(%rax),%rax
ffffffff80001bc2:	48 89 45 f8          	mov    %rax,-0x8(%rbp)
ffffffff80001bc6:	48 83 7d f8 00       	cmpq   $0x0,-0x8(%rbp)
ffffffff80001bcb:	0f 85 f9 fe ff ff    	jne    ffffffff80001aca <_ZN3PMM9FreePagesEPvj+0x34>
ffffffff80001bd1:	eb 01                	jmp    ffffffff80001bd4 <_ZN3PMM9FreePagesEPvj+0x13e>
ffffffff80001bd3:	90                   	nop
ffffffff80001bd4:	c9                   	leave
ffffffff80001bd5:	c3                   	ret

ffffffff80001bd6 <_ZN3PMM9DumpStatsEv>:
ffffffff80001bd6:	55                   	push   %rbp
ffffffff80001bd7:	48 89 e5             	mov    %rsp,%rbp
ffffffff80001bda:	41 54                	push   %r12
ffffffff80001bdc:	53                   	push   %rbx
ffffffff80001bdd:	48 83 ec 30          	sub    $0x30,%rsp
ffffffff80001be1:	48 c7 45 e8 00 00 00 	movq   $0x0,-0x18(%rbp)
ffffffff80001be8:	00 
ffffffff80001be9:	48 c7 45 e0 00 00 00 	movq   $0x0,-0x20(%rbp)
ffffffff80001bf0:	00 
ffffffff80001bf1:	48 8b 05 f8 26 00 00 	mov    0x26f8(%rip),%rax        # ffffffff800042f0 <_ZN3PMML7regionsE>
ffffffff80001bf8:	48 89 45 d8          	mov    %rax,-0x28(%rbp)
ffffffff80001bfc:	eb 24                	jmp    ffffffff80001c22 <_ZN3PMM9DumpStatsEv+0x4c>
ffffffff80001bfe:	48 8b 45 d8          	mov    -0x28(%rbp),%rax
ffffffff80001c02:	48 8b 40 20          	mov    0x20(%rax),%rax
ffffffff80001c06:	48 01 45 e8          	add    %rax,-0x18(%rbp)
ffffffff80001c0a:	48 8b 45 d8          	mov    -0x28(%rbp),%rax
ffffffff80001c0e:	48 8b 40 28          	mov    0x28(%rax),%rax
ffffffff80001c12:	48 01 45 e0          	add    %rax,-0x20(%rbp)
ffffffff80001c16:	48 8b 45 d8          	mov    -0x28(%rbp),%rax
ffffffff80001c1a:	48 8b 40 18          	mov    0x18(%rax),%rax
ffffffff80001c1e:	48 89 45 d8          	mov    %rax,-0x28(%rbp)
ffffffff80001c22:	48 83 7d d8 00       	cmpq   $0x0,-0x28(%rbp)
ffffffff80001c27:	75 d5                	jne    ffffffff80001bfe <_ZN3PMM9DumpStatsEv+0x28>
ffffffff80001c29:	48 8b 45 e8          	mov    -0x18(%rbp),%rax
ffffffff80001c2d:	48 2b 45 e0          	sub    -0x20(%rbp),%rax
ffffffff80001c31:	48 89 45 d0          	mov    %rax,-0x30(%rbp)
ffffffff80001c35:	48 8b 45 e8          	mov    -0x18(%rbp),%rax
ffffffff80001c39:	48 c1 e8 14          	shr    $0x14,%rax
ffffffff80001c3d:	49 89 c4             	mov    %rax,%r12
ffffffff80001c40:	48 8b 45 e8          	mov    -0x18(%rbp),%rax
ffffffff80001c44:	48 c1 e8 0a          	shr    $0xa,%rax
ffffffff80001c48:	48 89 c3             	mov    %rax,%rbx
ffffffff80001c4b:	48 8d 45 c7          	lea    -0x39(%rbp),%rax
ffffffff80001c4f:	be ff ff 00 00       	mov    $0xffff,%esi
ffffffff80001c54:	48 89 c7             	mov    %rax,%rdi
ffffffff80001c57:	e8 2c f5 ff ff       	call   ffffffff80001188 <_ZN8Graphics5ColorC1Ej>
ffffffff80001c5c:	4c 89 e1             	mov    %r12,%rcx
ffffffff80001c5f:	48 89 da             	mov    %rbx,%rdx
ffffffff80001c62:	48 c7 c6 dc 2d 00 80 	mov    $0xffffffff80002ddc,%rsi
ffffffff80001c69:	0f b6 7d c7          	movzbl -0x39(%rbp),%edi
ffffffff80001c6d:	0f b6 45 c8          	movzbl -0x38(%rbp),%eax
ffffffff80001c71:	48 c1 e0 08          	shl    $0x8,%rax
ffffffff80001c75:	48 09 c7             	or     %rax,%rdi
ffffffff80001c78:	0f b6 45 c9          	movzbl -0x37(%rbp),%eax
ffffffff80001c7c:	48 c1 e0 10          	shl    $0x10,%rax
ffffffff80001c80:	48 09 f8             	or     %rdi,%rax
ffffffff80001c83:	48 89 c7             	mov    %rax,%rdi
ffffffff80001c86:	b8 00 00 00 00       	mov    $0x0,%eax
ffffffff80001c8b:	e8 6f f3 ff ff       	call   ffffffff80000fff <_ZN8Terminal6PrintfEN8Graphics5ColorEPKcz>
ffffffff80001c90:	48 8b 45 e0          	mov    -0x20(%rbp),%rax
ffffffff80001c94:	48 c1 e8 14          	shr    $0x14,%rax
ffffffff80001c98:	49 89 c4             	mov    %rax,%r12
ffffffff80001c9b:	48 8b 45 e0          	mov    -0x20(%rbp),%rax
ffffffff80001c9f:	48 c1 e8 0a          	shr    $0xa,%rax
ffffffff80001ca3:	48 89 c3             	mov    %rax,%rbx
ffffffff80001ca6:	48 8d 45 ca          	lea    -0x36(%rbp),%rax
ffffffff80001caa:	be ff ff 00 00       	mov    $0xffff,%esi
ffffffff80001caf:	48 89 c7             	mov    %rax,%rdi
ffffffff80001cb2:	e8 d1 f4 ff ff       	call   ffffffff80001188 <_ZN8Graphics5ColorC1Ej>
ffffffff80001cb7:	4c 89 e1             	mov    %r12,%rcx
ffffffff80001cba:	48 89 da             	mov    %rbx,%rdx
ffffffff80001cbd:	48 c7 c6 fa 2d 00 80 	mov    $0xffffffff80002dfa,%rsi
ffffffff80001cc4:	0f b7 7d ca          	movzwl -0x36(%rbp),%edi
ffffffff80001cc8:	0f b6 45 cc          	movzbl -0x34(%rbp),%eax
ffffffff80001ccc:	48 c1 e0 10          	shl    $0x10,%rax
ffffffff80001cd0:	48 09 f8             	or     %rdi,%rax
ffffffff80001cd3:	48 89 c7             	mov    %rax,%rdi
ffffffff80001cd6:	b8 00 00 00 00       	mov    $0x0,%eax
ffffffff80001cdb:	e8 1f f3 ff ff       	call   ffffffff80000fff <_ZN8Terminal6PrintfEN8Graphics5ColorEPKcz>
ffffffff80001ce0:	48 8b 45 d0          	mov    -0x30(%rbp),%rax
ffffffff80001ce4:	48 c1 e8 14          	shr    $0x14,%rax
ffffffff80001ce8:	49 89 c4             	mov    %rax,%r12
ffffffff80001ceb:	48 8b 45 d0          	mov    -0x30(%rbp),%rax
ffffffff80001cef:	48 c1 e8 0a          	shr    $0xa,%rax
ffffffff80001cf3:	48 89 c3             	mov    %rax,%rbx
ffffffff80001cf6:	48 8d 45 cd          	lea    -0x33(%rbp),%rax
ffffffff80001cfa:	be ff ff 00 00       	mov    $0xffff,%esi
ffffffff80001cff:	48 89 c7             	mov    %rax,%rdi
ffffffff80001d02:	e8 81 f4 ff ff       	call   ffffffff80001188 <_ZN8Graphics5ColorC1Ej>
ffffffff80001d07:	4c 89 e1             	mov    %r12,%rcx
ffffffff80001d0a:	48 89 da             	mov    %rbx,%rdx
ffffffff80001d0d:	48 c7 c6 18 2e 00 80 	mov    $0xffffffff80002e18,%rsi
ffffffff80001d14:	0f b6 7d cd          	movzbl -0x33(%rbp),%edi
ffffffff80001d18:	0f b6 45 ce          	movzbl -0x32(%rbp),%eax
ffffffff80001d1c:	48 c1 e0 08          	shl    $0x8,%rax
ffffffff80001d20:	48 09 c7             	or     %rax,%rdi
ffffffff80001d23:	0f b6 45 cf          	movzbl -0x31(%rbp),%eax
ffffffff80001d27:	48 c1 e0 10          	shl    $0x10,%rax
ffffffff80001d2b:	48 09 f8             	or     %rdi,%rax
ffffffff80001d2e:	48 89 c7             	mov    %rax,%rdi
ffffffff80001d31:	b8 00 00 00 00       	mov    $0x0,%eax
ffffffff80001d36:	e8 c4 f2 ff ff       	call   ffffffff80000fff <_ZN8Terminal6PrintfEN8Graphics5ColorEPKcz>
ffffffff80001d3b:	90                   	nop
ffffffff80001d3c:	48 83 c4 30          	add    $0x30,%rsp
ffffffff80001d40:	5b                   	pop    %rbx
ffffffff80001d41:	41 5c                	pop    %r12
ffffffff80001d43:	5d                   	pop    %rbp
ffffffff80001d44:	c3                   	ret
ffffffff80001d45:	90                   	nop

ffffffff80001d46 <_ZN3PMM12MemoryRegionC1Em>:
ffffffff80001d46:	55                   	push   %rbp
ffffffff80001d47:	48 89 e5             	mov    %rsp,%rbp
ffffffff80001d4a:	48 83 ec 10          	sub    $0x10,%rsp
ffffffff80001d4e:	48 89 7d f8          	mov    %rdi,-0x8(%rbp)
ffffffff80001d52:	48 89 75 f0          	mov    %rsi,-0x10(%rbp)
ffffffff80001d56:	48 8b 45 f8          	mov    -0x8(%rbp),%rax
ffffffff80001d5a:	48 c7 00 00 00 00 00 	movq   $0x0,(%rax)
ffffffff80001d61:	48 8b 45 f8          	mov    -0x8(%rbp),%rax
ffffffff80001d65:	48 c7 40 10 00 00 00 	movq   $0x0,0x10(%rax)
ffffffff80001d6c:	00 
ffffffff80001d6d:	48 8b 45 f8          	mov    -0x8(%rbp),%rax
ffffffff80001d71:	48 c7 40 18 00 00 00 	movq   $0x0,0x18(%rax)
ffffffff80001d78:	00 
ffffffff80001d79:	48 8b 45 f8          	mov    -0x8(%rbp),%rax
ffffffff80001d7d:	48 8b 55 f0          	mov    -0x10(%rbp),%rdx
ffffffff80001d81:	48 89 50 20          	mov    %rdx,0x20(%rax)
ffffffff80001d85:	90                   	nop
ffffffff80001d86:	c9                   	leave
ffffffff80001d87:	c3                   	ret

ffffffff80001d88 <_Z6memsetPhhj>:
ffffffff80001d88:	55                   	push   %rbp
ffffffff80001d89:	48 89 e5             	mov    %rsp,%rbp
ffffffff80001d8c:	48 83 ec 20          	sub    $0x20,%rsp
ffffffff80001d90:	48 89 7d e8          	mov    %rdi,-0x18(%rbp)
ffffffff80001d94:	89 f0                	mov    %esi,%eax
ffffffff80001d96:	89 55 e0             	mov    %edx,-0x20(%rbp)
ffffffff80001d99:	88 45 e4             	mov    %al,-0x1c(%rbp)
ffffffff80001d9c:	c7 45 fc 00 00 00 00 	movl   $0x0,-0x4(%rbp)
ffffffff80001da3:	eb 14                	jmp    ffffffff80001db9 <_Z6memsetPhhj+0x31>
ffffffff80001da5:	8b 55 fc             	mov    -0x4(%rbp),%edx
ffffffff80001da8:	48 8b 45 e8          	mov    -0x18(%rbp),%rax
ffffffff80001dac:	48 01 c2             	add    %rax,%rdx
ffffffff80001daf:	0f b6 45 e4          	movzbl -0x1c(%rbp),%eax
ffffffff80001db3:	88 02                	mov    %al,(%rdx)
ffffffff80001db5:	83 45 fc 01          	addl   $0x1,-0x4(%rbp)
ffffffff80001db9:	8b 45 fc             	mov    -0x4(%rbp),%eax
ffffffff80001dbc:	3b 45 e0             	cmp    -0x20(%rbp),%eax
ffffffff80001dbf:	72 e4                	jb     ffffffff80001da5 <_Z6memsetPhhj+0x1d>
ffffffff80001dc1:	90                   	nop
ffffffff80001dc2:	90                   	nop
ffffffff80001dc3:	c9                   	leave
ffffffff80001dc4:	c3                   	ret

ffffffff80001dc5 <_ZN6PagingL5EntryEm>:
ffffffff80001dc5:	55                   	push   %rbp
ffffffff80001dc6:	48 89 e5             	mov    %rsp,%rbp
ffffffff80001dc9:	48 83 ec 08          	sub    $0x8,%rsp
ffffffff80001dcd:	48 89 7d f8          	mov    %rdi,-0x8(%rbp)
ffffffff80001dd1:	48 b8 00 f0 ff ff ff 	movabs $0xfffffffff000,%rax
ffffffff80001dd8:	ff 00 00 
ffffffff80001ddb:	48 23 45 f8          	and    -0x8(%rbp),%rax
ffffffff80001ddf:	c9                   	leave
ffffffff80001de0:	c3                   	ret

ffffffff80001de1 <_ZN6Paging4InitEv>:
ffffffff80001de1:	55                   	push   %rbp
ffffffff80001de2:	48 89 e5             	mov    %rsp,%rbp
ffffffff80001de5:	48 83 ec 40          	sub    $0x40,%rsp
ffffffff80001de9:	e8 03 fb ff ff       	call   ffffffff800018f1 <_ZN3PMM7GetPageEv>
ffffffff80001dee:	48 89 05 03 25 00 00 	mov    %rax,0x2503(%rip)        # ffffffff800042f8 <_ZN6Paging15kernelAddrSpaceE>
ffffffff80001df5:	48 8b 05 fc 24 00 00 	mov    0x24fc(%rip),%rax        # ffffffff800042f8 <_ZN6Paging15kernelAddrSpaceE>
ffffffff80001dfc:	48 89 45 d8          	mov    %rax,-0x28(%rbp)
ffffffff80001e00:	48 ba 00 00 00 00 00 	movabs $0xffff800000000000,%rdx
ffffffff80001e07:	80 ff ff 
ffffffff80001e0a:	48 8b 45 d8          	mov    -0x28(%rbp),%rax
ffffffff80001e0e:	48 01 d0             	add    %rdx,%rax
ffffffff80001e11:	ba 00 10 00 00       	mov    $0x1000,%edx
ffffffff80001e16:	be 00 00 00 00       	mov    $0x0,%esi
ffffffff80001e1b:	48 89 c7             	mov    %rax,%rdi
ffffffff80001e1e:	e8 65 ff ff ff       	call   ffffffff80001d88 <_Z6memsetPhhj>
ffffffff80001e23:	48 8b 05 ce 24 00 00 	mov    0x24ce(%rip),%rax        # ffffffff800042f8 <_ZN6Paging15kernelAddrSpaceE>
ffffffff80001e2a:	48 89 c7             	mov    %rax,%rdi
ffffffff80001e2d:	e8 93 ff ff ff       	call   ffffffff80001dc5 <_ZN6PagingL5EntryEm>
ffffffff80001e32:	48 89 05 bf 24 00 00 	mov    %rax,0x24bf(%rip)        # ffffffff800042f8 <_ZN6Paging15kernelAddrSpaceE>
ffffffff80001e39:	48 c7 c0 00 43 00 80 	mov    $0xffffffff80004300,%rax
ffffffff80001e40:	48 2d 00 00 00 80    	sub    $0xffffffff80000000,%rax
ffffffff80001e46:	48 89 45 e0          	mov    %rax,-0x20(%rbp)
ffffffff80001e4a:	48 8b 45 e0          	mov    -0x20(%rbp),%rax
ffffffff80001e4e:	48 05 ff 0f 00 00    	add    $0xfff,%rax
ffffffff80001e54:	48 c1 e8 0c          	shr    $0xc,%rax
ffffffff80001e58:	89 c1                	mov    %eax,%ecx
ffffffff80001e5a:	48 8b 05 97 10 00 00 	mov    0x1097(%rip),%rax        # ffffffff80002ef8 <_ZL14kernelLocation+0x18>
ffffffff80001e61:	48 8b 40 08          	mov    0x8(%rax),%rax
ffffffff80001e65:	48 89 c2             	mov    %rax,%rdx
ffffffff80001e68:	48 8b 05 89 10 00 00 	mov    0x1089(%rip),%rax        # ffffffff80002ef8 <_ZL14kernelLocation+0x18>
ffffffff80001e6f:	48 8b 00             	mov    (%rax),%rax
ffffffff80001e72:	49 89 c8             	mov    %rcx,%r8
ffffffff80001e75:	b9 03 00 00 00       	mov    $0x3,%ecx
ffffffff80001e7a:	48 89 c6             	mov    %rax,%rsi
ffffffff80001e7d:	48 8b 3d 74 24 00 00 	mov    0x2474(%rip),%rdi        # ffffffff800042f8 <_ZN6Paging15kernelAddrSpaceE>
ffffffff80001e84:	e8 4e 03 00 00       	call   ffffffff800021d7 <_ZN6Paging8MapPagesENS_12AddressSpaceEmmtm>
ffffffff80001e89:	48 c7 45 e8 00 00 00 	movq   $0x40000000,-0x18(%rbp)
ffffffff80001e90:	40 
ffffffff80001e91:	48 8b 45 e8          	mov    -0x18(%rbp),%rax
ffffffff80001e95:	48 05 ff 0f 00 00    	add    $0xfff,%rax
ffffffff80001e9b:	48 c1 e8 0c          	shr    $0xc,%rax
ffffffff80001e9f:	89 c0                	mov    %eax,%eax
ffffffff80001ea1:	49 89 c0             	mov    %rax,%r8
ffffffff80001ea4:	b9 03 00 00 00       	mov    $0x3,%ecx
ffffffff80001ea9:	48 b8 00 00 00 00 00 	movabs $0xffff800000000000,%rax
ffffffff80001eb0:	80 ff ff 
ffffffff80001eb3:	48 89 c2             	mov    %rax,%rdx
ffffffff80001eb6:	be 00 10 00 00       	mov    $0x1000,%esi
ffffffff80001ebb:	48 8b 3d 36 24 00 00 	mov    0x2436(%rip),%rdi        # ffffffff800042f8 <_ZN6Paging15kernelAddrSpaceE>
ffffffff80001ec2:	e8 10 03 00 00       	call   ffffffff800021d7 <_ZN6Paging8MapPagesENS_12AddressSpaceEmmtm>
ffffffff80001ec7:	48 c7 45 f8 00 00 00 	movq   $0x0,-0x8(%rbp)
ffffffff80001ece:	00 
ffffffff80001ecf:	e9 96 00 00 00       	jmp    ffffffff80001f6a <_ZN6Paging4InitEv+0x189>
ffffffff80001ed4:	48 8b 05 0d 24 00 00 	mov    0x240d(%rip),%rax        # ffffffff800042e8 <_ZN3PMM6MemMapE>
ffffffff80001edb:	48 8b 48 08          	mov    0x8(%rax),%rcx
ffffffff80001edf:	48 8b 55 f8          	mov    -0x8(%rbp),%rdx
ffffffff80001ee3:	48 89 d0             	mov    %rdx,%rax
ffffffff80001ee6:	48 01 c0             	add    %rax,%rax
ffffffff80001ee9:	48 01 d0             	add    %rdx,%rax
ffffffff80001eec:	48 c1 e0 03          	shl    $0x3,%rax
ffffffff80001ef0:	48 01 c8             	add    %rcx,%rax
ffffffff80001ef3:	48 89 45 f0          	mov    %rax,-0x10(%rbp)
ffffffff80001ef7:	48 8b 45 f0          	mov    -0x10(%rbp),%rax
ffffffff80001efb:	48 8b 50 08          	mov    0x8(%rax),%rdx
ffffffff80001eff:	48 8b 45 f0          	mov    -0x10(%rbp),%rax
ffffffff80001f03:	48 8b 40 10          	mov    0x10(%rax),%rax
ffffffff80001f07:	48 01 d0             	add    %rdx,%rax
ffffffff80001f0a:	48 3d ff ff 3f 00    	cmp    $0x3fffff,%rax
ffffffff80001f10:	76 52                	jbe    ffffffff80001f64 <_ZN6Paging4InitEv+0x183>
ffffffff80001f12:	48 8b 45 f0          	mov    -0x10(%rbp),%rax
ffffffff80001f16:	48 8b 40 10          	mov    0x10(%rax),%rax
ffffffff80001f1a:	48 89 45 d0          	mov    %rax,-0x30(%rbp)
ffffffff80001f1e:	48 8b 45 d0          	mov    -0x30(%rbp),%rax
ffffffff80001f22:	48 05 ff 0f 00 00    	add    $0xfff,%rax
ffffffff80001f28:	48 c1 e8 0c          	shr    $0xc,%rax
ffffffff80001f2c:	89 c1                	mov    %eax,%ecx
ffffffff80001f2e:	48 8b 45 f0          	mov    -0x10(%rbp),%rax
ffffffff80001f32:	48 8b 40 08          	mov    0x8(%rax),%rax
ffffffff80001f36:	48 ba 00 00 00 00 00 	movabs $0xffff800000000000,%rdx
ffffffff80001f3d:	80 ff ff 
ffffffff80001f40:	48 01 c2             	add    %rax,%rdx
ffffffff80001f43:	48 8b 45 f0          	mov    -0x10(%rbp),%rax
ffffffff80001f47:	48 8b 40 08          	mov    0x8(%rax),%rax
ffffffff80001f4b:	49 89 c8             	mov    %rcx,%r8
ffffffff80001f4e:	b9 03 00 00 00       	mov    $0x3,%ecx
ffffffff80001f53:	48 89 c6             	mov    %rax,%rsi
ffffffff80001f56:	48 8b 3d 9b 23 00 00 	mov    0x239b(%rip),%rdi        # ffffffff800042f8 <_ZN6Paging15kernelAddrSpaceE>
ffffffff80001f5d:	e8 75 02 00 00       	call   ffffffff800021d7 <_ZN6Paging8MapPagesENS_12AddressSpaceEmmtm>
ffffffff80001f62:	eb 01                	jmp    ffffffff80001f65 <_ZN6Paging4InitEv+0x184>
ffffffff80001f64:	90                   	nop
ffffffff80001f65:	48 83 45 f8 01       	addq   $0x1,-0x8(%rbp)
ffffffff80001f6a:	48 8b 05 77 23 00 00 	mov    0x2377(%rip),%rax        # ffffffff800042e8 <_ZN3PMM6MemMapE>
ffffffff80001f71:	48 8b 00             	mov    (%rax),%rax
ffffffff80001f74:	48 39 45 f8          	cmp    %rax,-0x8(%rbp)
ffffffff80001f78:	0f 82 56 ff ff ff    	jb     ffffffff80001ed4 <_ZN6Paging4InitEv+0xf3>
ffffffff80001f7e:	48 8b 05 5b 23 00 00 	mov    0x235b(%rip),%rax        # ffffffff800042e0 <_ZN8Graphics11framebufferE+0x20>
ffffffff80001f85:	48 89 45 c8          	mov    %rax,-0x38(%rbp)
ffffffff80001f89:	48 8b 45 c8          	mov    -0x38(%rbp),%rax
ffffffff80001f8d:	48 05 ff 0f 00 00    	add    $0xfff,%rax
ffffffff80001f93:	48 c1 e8 0c          	shr    $0xc,%rax
ffffffff80001f97:	89 c1                	mov    %eax,%ecx
ffffffff80001f99:	48 8b 05 20 23 00 00 	mov    0x2320(%rip),%rax        # ffffffff800042c0 <_ZN8Graphics11framebufferE>
ffffffff80001fa0:	48 89 c2             	mov    %rax,%rdx
ffffffff80001fa3:	48 8b 05 16 23 00 00 	mov    0x2316(%rip),%rax        # ffffffff800042c0 <_ZN8Graphics11framebufferE>
ffffffff80001faa:	48 89 c6             	mov    %rax,%rsi
ffffffff80001fad:	48 b8 00 00 00 00 00 	movabs $0x800000000000,%rax
ffffffff80001fb4:	80 00 00 
ffffffff80001fb7:	48 01 f0             	add    %rsi,%rax
ffffffff80001fba:	49 89 c8             	mov    %rcx,%r8
ffffffff80001fbd:	b9 03 00 00 00       	mov    $0x3,%ecx
ffffffff80001fc2:	48 89 c6             	mov    %rax,%rsi
ffffffff80001fc5:	48 8b 3d 2c 23 00 00 	mov    0x232c(%rip),%rdi        # ffffffff800042f8 <_ZN6Paging15kernelAddrSpaceE>
ffffffff80001fcc:	e8 06 02 00 00       	call   ffffffff800021d7 <_ZN6Paging8MapPagesENS_12AddressSpaceEmmtm>
ffffffff80001fd1:	48 8b 05 20 23 00 00 	mov    0x2320(%rip),%rax        # ffffffff800042f8 <_ZN6Paging15kernelAddrSpaceE>
ffffffff80001fd8:	0f 22 d8             	mov    %rax,%cr3
ffffffff80001fdb:	90                   	nop
ffffffff80001fdc:	c9                   	leave
ffffffff80001fdd:	c3                   	ret

ffffffff80001fde <_ZN6Paging7MapPageENS_12AddressSpaceEmmt>:
ffffffff80001fde:	55                   	push   %rbp
ffffffff80001fdf:	48 89 e5             	mov    %rsp,%rbp
ffffffff80001fe2:	48 83 ec 60          	sub    $0x60,%rsp
ffffffff80001fe6:	48 89 7d b8          	mov    %rdi,-0x48(%rbp)
ffffffff80001fea:	48 89 75 b0          	mov    %rsi,-0x50(%rbp)
ffffffff80001fee:	48 89 55 a8          	mov    %rdx,-0x58(%rbp)
ffffffff80001ff2:	89 c8                	mov    %ecx,%eax
ffffffff80001ff4:	66 89 45 a4          	mov    %ax,-0x5c(%rbp)
ffffffff80001ff8:	48 81 65 b0 00 f0 ff 	andq   $0xfffffffffffff000,-0x50(%rbp)
ffffffff80001fff:	ff 
ffffffff80002000:	48 81 65 a8 00 f0 ff 	andq   $0xfffffffffffff000,-0x58(%rbp)
ffffffff80002007:	ff 
ffffffff80002008:	66 81 65 a4 ff 0f    	andw   $0xfff,-0x5c(%rbp)
ffffffff8000200e:	48 b8 00 00 00 00 00 	movabs $0x800000000000,%rax
ffffffff80002015:	80 00 00 
ffffffff80002018:	48 23 45 a8          	and    -0x58(%rbp),%rax
ffffffff8000201c:	48 85 c0             	test   %rax,%rax
ffffffff8000201f:	74 35                	je     ffffffff80002056 <_ZN6Paging7MapPageENS_12AddressSpaceEmmt+0x78>
ffffffff80002021:	48 b8 00 00 00 00 00 	movabs $0xffff000000000000,%rax
ffffffff80002028:	00 ff ff 
ffffffff8000202b:	48 23 45 a8          	and    -0x58(%rbp),%rax
ffffffff8000202f:	48 ba 00 00 00 00 00 	movabs $0xffff000000000000,%rdx
ffffffff80002036:	00 ff ff 
ffffffff80002039:	48 39 d0             	cmp    %rdx,%rax
ffffffff8000203c:	74 18                	je     ffffffff80002056 <_ZN6Paging7MapPageENS_12AddressSpaceEmmt+0x78>
ffffffff8000203e:	48 8b 45 a8          	mov    -0x58(%rbp),%rax
ffffffff80002042:	48 89 c6             	mov    %rax,%rsi
ffffffff80002045:	48 c7 c7 40 2e 00 80 	mov    $0xffffffff80002e40,%rdi
ffffffff8000204c:	b8 00 00 00 00       	mov    $0x0,%eax
ffffffff80002051:	e8 f5 03 00 00       	call   ffffffff8000244b <_ZN6Kernel5PanicEPKcz>
ffffffff80002056:	48 c7 45 f8 30 00 00 	movq   $0x30,-0x8(%rbp)
ffffffff8000205d:	00 
ffffffff8000205e:	48 8b 45 b8          	mov    -0x48(%rbp),%rax
ffffffff80002062:	48 89 c7             	mov    %rax,%rdi
ffffffff80002065:	e8 5b fd ff ff       	call   ffffffff80001dc5 <_ZN6PagingL5EntryEm>
ffffffff8000206a:	48 89 45 d8          	mov    %rax,-0x28(%rbp)
ffffffff8000206e:	48 ba 00 00 00 00 00 	movabs $0xffff800000000000,%rdx
ffffffff80002075:	80 ff ff 
ffffffff80002078:	48 8b 45 d8          	mov    -0x28(%rbp),%rax
ffffffff8000207c:	48 01 d0             	add    %rdx,%rax
ffffffff8000207f:	48 89 45 f0          	mov    %rax,-0x10(%rbp)
ffffffff80002083:	c6 45 e7 00          	movb   $0x0,-0x19(%rbp)
ffffffff80002087:	e9 1d 01 00 00       	jmp    ffffffff800021a9 <_ZN6Paging7MapPageENS_12AddressSpaceEmmt+0x1cb>
ffffffff8000208c:	48 83 6d f8 09       	subq   $0x9,-0x8(%rbp)
ffffffff80002091:	48 8b 45 f8          	mov    -0x8(%rbp),%rax
ffffffff80002095:	89 c2                	mov    %eax,%edx
ffffffff80002097:	48 8b 45 a8          	mov    -0x58(%rbp),%rax
ffffffff8000209b:	89 d1                	mov    %edx,%ecx
ffffffff8000209d:	48 d3 e8             	shr    %cl,%rax
ffffffff800020a0:	25 ff 01 00 00       	and    $0x1ff,%eax
ffffffff800020a5:	48 89 45 e8          	mov    %rax,-0x18(%rbp)
ffffffff800020a9:	80 7d e7 03          	cmpb   $0x3,-0x19(%rbp)
ffffffff800020ad:	0f 84 02 01 00 00    	je     ffffffff800021b5 <_ZN6Paging7MapPageENS_12AddressSpaceEmmt+0x1d7>
ffffffff800020b3:	48 8b 45 e8          	mov    -0x18(%rbp),%rax
ffffffff800020b7:	48 8d 14 c5 00 00 00 	lea    0x0(,%rax,8),%rdx
ffffffff800020be:	00 
ffffffff800020bf:	48 8b 45 f0          	mov    -0x10(%rbp),%rax
ffffffff800020c3:	48 01 d0             	add    %rdx,%rax
ffffffff800020c6:	48 8b 00             	mov    (%rax),%rax
ffffffff800020c9:	83 e0 01             	and    $0x1,%eax
ffffffff800020cc:	48 85 c0             	test   %rax,%rax
ffffffff800020cf:	0f 85 93 00 00 00    	jne    ffffffff80002168 <_ZN6Paging7MapPageENS_12AddressSpaceEmmt+0x18a>
ffffffff800020d5:	e8 17 f8 ff ff       	call   ffffffff800018f1 <_ZN3PMM7GetPageEv>
ffffffff800020da:	48 8b 55 e8          	mov    -0x18(%rbp),%rdx
ffffffff800020de:	48 8d 0c d5 00 00 00 	lea    0x0(,%rdx,8),%rcx
ffffffff800020e5:	00 
ffffffff800020e6:	48 8b 55 f0          	mov    -0x10(%rbp),%rdx
ffffffff800020ea:	48 01 ca             	add    %rcx,%rdx
ffffffff800020ed:	48 89 02             	mov    %rax,(%rdx)
ffffffff800020f0:	48 8b 45 e8          	mov    -0x18(%rbp),%rax
ffffffff800020f4:	48 8d 14 c5 00 00 00 	lea    0x0(,%rax,8),%rdx
ffffffff800020fb:	00 
ffffffff800020fc:	48 8b 45 f0          	mov    -0x10(%rbp),%rax
ffffffff80002100:	48 01 d0             	add    %rdx,%rax
ffffffff80002103:	48 8b 00             	mov    (%rax),%rax
ffffffff80002106:	48 89 c7             	mov    %rax,%rdi
ffffffff80002109:	e8 b7 fc ff ff       	call   ffffffff80001dc5 <_ZN6PagingL5EntryEm>
ffffffff8000210e:	48 89 45 d0          	mov    %rax,-0x30(%rbp)
ffffffff80002112:	48 ba 00 00 00 00 00 	movabs $0xffff800000000000,%rdx
ffffffff80002119:	80 ff ff 
ffffffff8000211c:	48 8b 45 d0          	mov    -0x30(%rbp),%rax
ffffffff80002120:	48 01 d0             	add    %rdx,%rax
ffffffff80002123:	ba 00 10 00 00       	mov    $0x1000,%edx
ffffffff80002128:	be 00 00 00 00       	mov    $0x0,%esi
ffffffff8000212d:	48 89 c7             	mov    %rax,%rdi
ffffffff80002130:	e8 53 fc ff ff       	call   ffffffff80001d88 <_Z6memsetPhhj>
ffffffff80002135:	48 8b 45 e8          	mov    -0x18(%rbp),%rax
ffffffff80002139:	48 8d 14 c5 00 00 00 	lea    0x0(,%rax,8),%rdx
ffffffff80002140:	00 
ffffffff80002141:	48 8b 45 f0          	mov    -0x10(%rbp),%rax
ffffffff80002145:	48 01 d0             	add    %rdx,%rax
ffffffff80002148:	48 8b 08             	mov    (%rax),%rcx
ffffffff8000214b:	0f b7 55 a4          	movzwl -0x5c(%rbp),%edx
ffffffff8000214f:	48 8b 45 e8          	mov    -0x18(%rbp),%rax
ffffffff80002153:	48 8d 34 c5 00 00 00 	lea    0x0(,%rax,8),%rsi
ffffffff8000215a:	00 
ffffffff8000215b:	48 8b 45 f0          	mov    -0x10(%rbp),%rax
ffffffff8000215f:	48 01 f0             	add    %rsi,%rax
ffffffff80002162:	48 09 ca             	or     %rcx,%rdx
ffffffff80002165:	48 89 10             	mov    %rdx,(%rax)
ffffffff80002168:	48 8b 45 e8          	mov    -0x18(%rbp),%rax
ffffffff8000216c:	48 8d 14 c5 00 00 00 	lea    0x0(,%rax,8),%rdx
ffffffff80002173:	00 
ffffffff80002174:	48 8b 45 f0          	mov    -0x10(%rbp),%rax
ffffffff80002178:	48 01 d0             	add    %rdx,%rax
ffffffff8000217b:	48 8b 00             	mov    (%rax),%rax
ffffffff8000217e:	48 89 c7             	mov    %rax,%rdi
ffffffff80002181:	e8 3f fc ff ff       	call   ffffffff80001dc5 <_ZN6PagingL5EntryEm>
ffffffff80002186:	48 89 45 c8          	mov    %rax,-0x38(%rbp)
ffffffff8000218a:	48 ba 00 00 00 00 00 	movabs $0xffff800000000000,%rdx
ffffffff80002191:	80 ff ff 
ffffffff80002194:	48 8b 45 c8          	mov    -0x38(%rbp),%rax
ffffffff80002198:	48 01 d0             	add    %rdx,%rax
ffffffff8000219b:	48 89 45 f0          	mov    %rax,-0x10(%rbp)
ffffffff8000219f:	0f b6 45 e7          	movzbl -0x19(%rbp),%eax
ffffffff800021a3:	83 c0 01             	add    $0x1,%eax
ffffffff800021a6:	88 45 e7             	mov    %al,-0x19(%rbp)
ffffffff800021a9:	80 7d e7 03          	cmpb   $0x3,-0x19(%rbp)
ffffffff800021ad:	0f 8e d9 fe ff ff    	jle    ffffffff8000208c <_ZN6Paging7MapPageENS_12AddressSpaceEmmt+0xae>
ffffffff800021b3:	eb 01                	jmp    ffffffff800021b6 <_ZN6Paging7MapPageENS_12AddressSpaceEmmt+0x1d8>
ffffffff800021b5:	90                   	nop
ffffffff800021b6:	0f b7 45 a4          	movzwl -0x5c(%rbp),%eax
ffffffff800021ba:	48 8b 55 e8          	mov    -0x18(%rbp),%rdx
ffffffff800021be:	48 8d 0c d5 00 00 00 	lea    0x0(,%rdx,8),%rcx
ffffffff800021c5:	00 
ffffffff800021c6:	48 8b 55 f0          	mov    -0x10(%rbp),%rdx
ffffffff800021ca:	48 01 ca             	add    %rcx,%rdx
ffffffff800021cd:	48 0b 45 b0          	or     -0x50(%rbp),%rax
ffffffff800021d1:	48 89 02             	mov    %rax,(%rdx)
ffffffff800021d4:	90                   	nop
ffffffff800021d5:	c9                   	leave
ffffffff800021d6:	c3                   	ret

ffffffff800021d7 <_ZN6Paging8MapPagesENS_12AddressSpaceEmmtm>:
ffffffff800021d7:	55                   	push   %rbp
ffffffff800021d8:	48 89 e5             	mov    %rsp,%rbp
ffffffff800021db:	48 83 ec 40          	sub    $0x40,%rsp
ffffffff800021df:	48 89 7d e8          	mov    %rdi,-0x18(%rbp)
ffffffff800021e3:	48 89 75 e0          	mov    %rsi,-0x20(%rbp)
ffffffff800021e7:	48 89 55 d8          	mov    %rdx,-0x28(%rbp)
ffffffff800021eb:	89 c8                	mov    %ecx,%eax
ffffffff800021ed:	4c 89 45 c8          	mov    %r8,-0x38(%rbp)
ffffffff800021f1:	66 89 45 d4          	mov    %ax,-0x2c(%rbp)
ffffffff800021f5:	48 c7 45 f8 00 00 00 	movq   $0x0,-0x8(%rbp)
ffffffff800021fc:	00 
ffffffff800021fd:	eb 35                	jmp    ffffffff80002234 <_ZN6Paging8MapPagesENS_12AddressSpaceEmmtm+0x5d>
ffffffff800021ff:	0f b7 55 d4          	movzwl -0x2c(%rbp),%edx
ffffffff80002203:	48 8b 4d d8          	mov    -0x28(%rbp),%rcx
ffffffff80002207:	48 8b 45 f8          	mov    -0x8(%rbp),%rax
ffffffff8000220b:	48 8d 3c 01          	lea    (%rcx,%rax,1),%rdi
ffffffff8000220f:	48 8b 4d e0          	mov    -0x20(%rbp),%rcx
ffffffff80002213:	48 8b 45 f8          	mov    -0x8(%rbp),%rax
ffffffff80002217:	48 8d 34 01          	lea    (%rcx,%rax,1),%rsi
ffffffff8000221b:	48 8b 45 e8          	mov    -0x18(%rbp),%rax
ffffffff8000221f:	89 d1                	mov    %edx,%ecx
ffffffff80002221:	48 89 fa             	mov    %rdi,%rdx
ffffffff80002224:	48 89 c7             	mov    %rax,%rdi
ffffffff80002227:	e8 b2 fd ff ff       	call   ffffffff80001fde <_ZN6Paging7MapPageENS_12AddressSpaceEmmt>
ffffffff8000222c:	48 81 45 f8 00 10 00 	addq   $0x1000,-0x8(%rbp)
ffffffff80002233:	00 
ffffffff80002234:	48 8b 45 c8          	mov    -0x38(%rbp),%rax
ffffffff80002238:	48 c1 e0 0c          	shl    $0xc,%rax
ffffffff8000223c:	48 39 45 f8          	cmp    %rax,-0x8(%rbp)
ffffffff80002240:	72 bd                	jb     ffffffff800021ff <_ZN6Paging8MapPagesENS_12AddressSpaceEmmtm+0x28>
ffffffff80002242:	90                   	nop
ffffffff80002243:	90                   	nop
ffffffff80002244:	c9                   	leave
ffffffff80002245:	c3                   	ret

ffffffff80002246 <_ZN6Paging18CreateAddressSpaceEv>:
ffffffff80002246:	55                   	push   %rbp
ffffffff80002247:	48 89 e5             	mov    %rsp,%rbp
ffffffff8000224a:	48 83 ec 20          	sub    $0x20,%rsp
ffffffff8000224e:	e8 9e f6 ff ff       	call   ffffffff800018f1 <_ZN3PMM7GetPageEv>
ffffffff80002253:	48 89 45 e0          	mov    %rax,-0x20(%rbp)
ffffffff80002257:	48 8b 45 e0          	mov    -0x20(%rbp),%rax
ffffffff8000225b:	48 89 45 e8          	mov    %rax,-0x18(%rbp)
ffffffff8000225f:	48 ba 00 00 00 00 00 	movabs $0xffff800000000000,%rdx
ffffffff80002266:	80 ff ff 
ffffffff80002269:	48 8b 45 e8          	mov    -0x18(%rbp),%rax
ffffffff8000226d:	48 01 d0             	add    %rdx,%rax
ffffffff80002270:	ba 00 10 00 00       	mov    $0x1000,%edx
ffffffff80002275:	be 00 00 00 00       	mov    $0x0,%esi
ffffffff8000227a:	48 89 c7             	mov    %rax,%rdi
ffffffff8000227d:	e8 06 fb ff ff       	call   ffffffff80001d88 <_Z6memsetPhhj>
ffffffff80002282:	48 8b 45 e0          	mov    -0x20(%rbp),%rax
ffffffff80002286:	48 89 c7             	mov    %rax,%rdi
ffffffff80002289:	e8 37 fb ff ff       	call   ffffffff80001dc5 <_ZN6PagingL5EntryEm>
ffffffff8000228e:	48 89 45 e0          	mov    %rax,-0x20(%rbp)
ffffffff80002292:	48 8b 05 5f 20 00 00 	mov    0x205f(%rip),%rax        # ffffffff800042f8 <_ZN6Paging15kernelAddrSpaceE>
ffffffff80002299:	48 05 00 08 00 00    	add    $0x800,%rax
ffffffff8000229f:	48 89 45 f0          	mov    %rax,-0x10(%rbp)
ffffffff800022a3:	48 ba 00 00 00 00 00 	movabs $0xffff800000000000,%rdx
ffffffff800022aa:	80 ff ff 
ffffffff800022ad:	48 8b 45 f0          	mov    -0x10(%rbp),%rax
ffffffff800022b1:	48 01 d0             	add    %rdx,%rax
ffffffff800022b4:	48 89 c1             	mov    %rax,%rcx
ffffffff800022b7:	48 8b 45 e0          	mov    -0x20(%rbp),%rax
ffffffff800022bb:	48 05 00 08 00 00    	add    $0x800,%rax
ffffffff800022c1:	48 89 45 f8          	mov    %rax,-0x8(%rbp)
ffffffff800022c5:	48 ba 00 00 00 00 00 	movabs $0xffff800000000000,%rdx
ffffffff800022cc:	80 ff ff 
ffffffff800022cf:	48 8b 45 f8          	mov    -0x8(%rbp),%rax
ffffffff800022d3:	48 01 d0             	add    %rdx,%rax
ffffffff800022d6:	ba 00 08 00 00       	mov    $0x800,%edx
ffffffff800022db:	48 89 ce             	mov    %rcx,%rsi
ffffffff800022de:	48 89 c7             	mov    %rax,%rdi
ffffffff800022e1:	e8 39 e4 ff ff       	call   ffffffff8000071f <_Z6memcpyPvS_m>
ffffffff800022e6:	48 8b 45 e0          	mov    -0x20(%rbp),%rax
ffffffff800022ea:	c9                   	leave
ffffffff800022eb:	c3                   	ret

ffffffff800022ec <SystemCallHandler>:
ffffffff800022ec:	55                   	push   %rbp
ffffffff800022ed:	48 89 e5             	mov    %rsp,%rbp
ffffffff800022f0:	48 83 ec 20          	sub    $0x20,%rsp
ffffffff800022f4:	48 89 7d e8          	mov    %rdi,-0x18(%rbp)
ffffffff800022f8:	48 8b 45 e8          	mov    -0x18(%rbp),%rax
ffffffff800022fc:	48 8b 80 88 00 00 00 	mov    0x88(%rax),%rax
ffffffff80002303:	48 85 c0             	test   %rax,%rax
ffffffff80002306:	75 4d                	jne    ffffffff80002355 <SystemCallHandler+0x69>
ffffffff80002308:	48 8d 45 fd          	lea    -0x3(%rbp),%rax
ffffffff8000230c:	be 00 ff 00 00       	mov    $0xff00,%esi
ffffffff80002311:	48 89 c7             	mov    %rax,%rdi
ffffffff80002314:	e8 6f ee ff ff       	call   ffffffff80001188 <_ZN8Graphics5ColorC1Ej>
ffffffff80002319:	48 8b 45 e8          	mov    -0x18(%rbp),%rax
ffffffff8000231d:	48 8b 40 68          	mov    0x68(%rax),%rax
ffffffff80002321:	89 c6                	mov    %eax,%esi
ffffffff80002323:	48 8b 45 e8          	mov    -0x18(%rbp),%rax
ffffffff80002327:	48 8b 40 60          	mov    0x60(%rax),%rax
ffffffff8000232b:	48 89 c1             	mov    %rax,%rcx
ffffffff8000232e:	0f b6 55 fd          	movzbl -0x3(%rbp),%edx
ffffffff80002332:	0f b6 45 fe          	movzbl -0x2(%rbp),%eax
ffffffff80002336:	48 c1 e0 08          	shl    $0x8,%rax
ffffffff8000233a:	48 09 c2             	or     %rax,%rdx
ffffffff8000233d:	0f b6 45 ff          	movzbl -0x1(%rbp),%eax
ffffffff80002341:	48 c1 e0 10          	shl    $0x10,%rax
ffffffff80002345:	48 09 d0             	or     %rdx,%rax
ffffffff80002348:	48 89 c2             	mov    %rax,%rdx
ffffffff8000234b:	48 89 cf             	mov    %rcx,%rdi
ffffffff8000234e:	e8 92 e7 ff ff       	call   ffffffff80000ae5 <_ZN8Terminal9PutStringEPcjN8Graphics5ColorE>
ffffffff80002353:	eb 01                	jmp    ffffffff80002356 <SystemCallHandler+0x6a>
ffffffff80002355:	90                   	nop
ffffffff80002356:	90                   	nop
ffffffff80002357:	c9                   	leave
ffffffff80002358:	c3                   	ret

ffffffff80002359 <_start>:
ffffffff80002359:	55                   	push   %rbp
ffffffff8000235a:	48 89 e5             	mov    %rsp,%rbp
ffffffff8000235d:	48 83 ec 10          	sub    $0x10,%rsp
ffffffff80002361:	e8 f5 e1 ff ff       	call   ffffffff8000055b <_Z7InitGDTv>
ffffffff80002366:	e8 00 e4 ff ff       	call   ffffffff8000076b <_Z7InitTSSv>
ffffffff8000236b:	e8 5a df ff ff       	call   ffffffff800002ca <_Z7InitIDTv>
ffffffff80002370:	e8 cb ee ff ff       	call   ffffffff80001240 <_ZN8Graphics4InitEv>
ffffffff80002375:	e8 ce e5 ff ff       	call   ffffffff80000948 <_ZN8Terminal4InitEv>
ffffffff8000237a:	e8 81 f3 ff ff       	call   ffffffff80001700 <_ZN3PMM4InitEv>
ffffffff8000237f:	e8 5d fa ff ff       	call   ffffffff80001de1 <_ZN6Paging4InitEv>
ffffffff80002384:	e8 ae ef ff ff       	call   ffffffff80001337 <_ZN3PIC4InitEv>
ffffffff80002389:	bf ad 04 00 00       	mov    $0x4ad,%edi
ffffffff8000238e:	e8 e2 ec ff ff       	call   ffffffff80001075 <_ZN3PIT4InitEt>
ffffffff80002393:	e8 ae fe ff ff       	call   ffffffff80002246 <_ZN6Paging18CreateAddressSpaceEv>
ffffffff80002398:	48 89 45 f8          	mov    %rax,-0x8(%rbp)
ffffffff8000239c:	e8 50 f5 ff ff       	call   ffffffff800018f1 <_ZN3PMM7GetPageEv>
ffffffff800023a1:	48 89 c6             	mov    %rax,%rsi
ffffffff800023a4:	48 8b 45 f8          	mov    -0x8(%rbp),%rax
ffffffff800023a8:	b9 07 00 00 00       	mov    $0x7,%ecx
ffffffff800023ad:	ba 00 00 30 00       	mov    $0x300000,%edx
ffffffff800023b2:	48 89 c7             	mov    %rax,%rdi
ffffffff800023b5:	e8 24 fc ff ff       	call   ffffffff80001fde <_ZN6Paging7MapPageENS_12AddressSpaceEmmt>
ffffffff800023ba:	bf 01 00 00 00       	mov    $0x1,%edi
ffffffff800023bf:	e8 34 01 00 00       	call   ffffffff800024f8 <_Z9GetModulei>
ffffffff800023c4:	48 8b 00             	mov    (%rax),%rax
ffffffff800023c7:	48 8b 55 f8          	mov    -0x8(%rbp),%rdx
ffffffff800023cb:	48 89 d6             	mov    %rdx,%rsi
ffffffff800023ce:	48 89 c7             	mov    %rax,%rdi
ffffffff800023d1:	e8 2a dc ff ff       	call   ffffffff80000000 <_ZN3ELF8ParseELFEPvN6Paging12AddressSpaceE>
ffffffff800023d6:	48 89 45 f0          	mov    %rax,-0x10(%rbp)
ffffffff800023da:	48 8b 45 f0          	mov    -0x10(%rbp),%rax
ffffffff800023de:	be ff 0f 30 00       	mov    $0x300fff,%esi
ffffffff800023e3:	48 89 c7             	mov    %rax,%rdi
ffffffff800023e6:	e8 15 06 00 00       	call   ffffffff80002a00 <enter_usermode>
ffffffff800023eb:	eb fe                	jmp    ffffffff800023eb <_start+0x92>

ffffffff800023ed <_ZN6Kernel5PanicEv>:
ffffffff800023ed:	55                   	push   %rbp
ffffffff800023ee:	48 89 e5             	mov    %rsp,%rbp
ffffffff800023f1:	fa                   	cli
ffffffff800023f2:	f4                   	hlt
ffffffff800023f3:	eb fc                	jmp    ffffffff800023f1 <_ZN6Kernel5PanicEv+0x4>

ffffffff800023f5 <_ZN6Kernel5PanicEPKc>:
ffffffff800023f5:	55                   	push   %rbp
ffffffff800023f6:	48 89 e5             	mov    %rsp,%rbp
ffffffff800023f9:	48 83 ec 20          	sub    $0x20,%rsp
ffffffff800023fd:	48 89 7d e8          	mov    %rdi,-0x18(%rbp)
ffffffff80002401:	48 8d 45 fd          	lea    -0x3(%rbp),%rax
ffffffff80002405:	be 00 00 ff 00       	mov    $0xff0000,%esi
ffffffff8000240a:	48 89 c7             	mov    %rax,%rdi
ffffffff8000240d:	e8 76 ed ff ff       	call   ffffffff80001188 <_ZN8Graphics5ColorC1Ej>
ffffffff80002412:	48 8b 45 e8          	mov    -0x18(%rbp),%rax
ffffffff80002416:	48 89 c2             	mov    %rax,%rdx
ffffffff80002419:	48 c7 c6 74 2e 00 80 	mov    $0xffffffff80002e74,%rsi
ffffffff80002420:	0f b6 4d fd          	movzbl -0x3(%rbp),%ecx
ffffffff80002424:	0f b6 45 fe          	movzbl -0x2(%rbp),%eax
ffffffff80002428:	48 c1 e0 08          	shl    $0x8,%rax
ffffffff8000242c:	48 09 c1             	or     %rax,%rcx
ffffffff8000242f:	0f b6 45 ff          	movzbl -0x1(%rbp),%eax
ffffffff80002433:	48 c1 e0 10          	shl    $0x10,%rax
ffffffff80002437:	48 09 c8             	or     %rcx,%rax
ffffffff8000243a:	48 89 c7             	mov    %rax,%rdi
ffffffff8000243d:	b8 00 00 00 00       	mov    $0x0,%eax
ffffffff80002442:	e8 b8 eb ff ff       	call   ffffffff80000fff <_ZN8Terminal6PrintfEN8Graphics5ColorEPKcz>
ffffffff80002447:	fa                   	cli
ffffffff80002448:	f4                   	hlt
ffffffff80002449:	eb fc                	jmp    ffffffff80002447 <_ZN6Kernel5PanicEPKc+0x52>

ffffffff8000244b <_ZN6Kernel5PanicEPKcz>:
ffffffff8000244b:	55                   	push   %rbp
ffffffff8000244c:	48 89 e5             	mov    %rsp,%rbp
ffffffff8000244f:	48 83 ec 60          	sub    $0x60,%rsp
ffffffff80002453:	48 89 7d a8          	mov    %rdi,-0x58(%rbp)
ffffffff80002457:	48 89 75 d8          	mov    %rsi,-0x28(%rbp)
ffffffff8000245b:	48 89 55 e0          	mov    %rdx,-0x20(%rbp)
ffffffff8000245f:	48 89 4d e8          	mov    %rcx,-0x18(%rbp)
ffffffff80002463:	4c 89 45 f0          	mov    %r8,-0x10(%rbp)
ffffffff80002467:	4c 89 4d f8          	mov    %r9,-0x8(%rbp)
ffffffff8000246b:	48 8d 45 ca          	lea    -0x36(%rbp),%rax
ffffffff8000246f:	be 00 00 ff 00       	mov    $0xff0000,%esi
ffffffff80002474:	48 89 c7             	mov    %rax,%rdi
ffffffff80002477:	e8 0c ed ff ff       	call   ffffffff80001188 <_ZN8Graphics5ColorC1Ej>
ffffffff8000247c:	48 c7 c6 85 2e 00 80 	mov    $0xffffffff80002e85,%rsi
ffffffff80002483:	0f b7 55 ca          	movzwl -0x36(%rbp),%edx
ffffffff80002487:	0f b6 45 cc          	movzbl -0x34(%rbp),%eax
ffffffff8000248b:	48 c1 e0 10          	shl    $0x10,%rax
ffffffff8000248f:	48 09 d0             	or     %rdx,%rax
ffffffff80002492:	48 89 c7             	mov    %rax,%rdi
ffffffff80002495:	b8 00 00 00 00       	mov    $0x0,%eax
ffffffff8000249a:	e8 60 eb ff ff       	call   ffffffff80000fff <_ZN8Terminal6PrintfEN8Graphics5ColorEPKcz>
ffffffff8000249f:	c7 45 b0 08 00 00 00 	movl   $0x8,-0x50(%rbp)
ffffffff800024a6:	48 8d 45 10          	lea    0x10(%rbp),%rax
ffffffff800024aa:	48 89 45 b8          	mov    %rax,-0x48(%rbp)
ffffffff800024ae:	48 8d 45 d0          	lea    -0x30(%rbp),%rax
ffffffff800024b2:	48 89 45 c0          	mov    %rax,-0x40(%rbp)
ffffffff800024b6:	48 8d 45 cd          	lea    -0x33(%rbp),%rax
ffffffff800024ba:	be 00 00 ff 00       	mov    $0xff0000,%esi
ffffffff800024bf:	48 89 c7             	mov    %rax,%rdi
ffffffff800024c2:	e8 c1 ec ff ff       	call   ffffffff80001188 <_ZN8Graphics5ColorC1Ej>
ffffffff800024c7:	48 8d 55 b0          	lea    -0x50(%rbp),%rdx
ffffffff800024cb:	48 8b 45 a8          	mov    -0x58(%rbp),%rax
ffffffff800024cf:	48 89 c6             	mov    %rax,%rsi
ffffffff800024d2:	0f b6 4d cd          	movzbl -0x33(%rbp),%ecx
ffffffff800024d6:	0f b6 45 ce          	movzbl -0x32(%rbp),%eax
ffffffff800024da:	48 c1 e0 08          	shl    $0x8,%rax
ffffffff800024de:	48 09 c1             	or     %rax,%rcx
ffffffff800024e1:	0f b6 45 cf          	movzbl -0x31(%rbp),%eax
ffffffff800024e5:	48 c1 e0 10          	shl    $0x10,%rax
ffffffff800024e9:	48 09 c8             	or     %rcx,%rax
ffffffff800024ec:	48 89 c7             	mov    %rax,%rdi
ffffffff800024ef:	e8 d6 e6 ff ff       	call   ffffffff80000bca <_ZN8Terminal7VPrintfEN8Graphics5ColorEPKcP13__va_list_tag>
ffffffff800024f4:	fa                   	cli
ffffffff800024f5:	f4                   	hlt
ffffffff800024f6:	eb fc                	jmp    ffffffff800024f4 <_ZN6Kernel5PanicEPKcz+0xa9>

ffffffff800024f8 <_Z9GetModulei>:
ffffffff800024f8:	55                   	push   %rbp
ffffffff800024f9:	48 89 e5             	mov    %rsp,%rbp
ffffffff800024fc:	48 83 ec 08          	sub    $0x8,%rsp
ffffffff80002500:	89 7d fc             	mov    %edi,-0x4(%rbp)
ffffffff80002503:	48 8b 05 0e 0a 00 00 	mov    0xa0e(%rip),%rax        # ffffffff80002f18 <_ZL7modules+0x18>
ffffffff8000250a:	0f b6 00             	movzbl (%rax),%eax
ffffffff8000250d:	0f b6 c0             	movzbl %al,%eax
ffffffff80002510:	39 45 fc             	cmp    %eax,-0x4(%rbp)
ffffffff80002513:	0f 9d c0             	setge  %al
ffffffff80002516:	84 c0                	test   %al,%al
ffffffff80002518:	74 07                	je     ffffffff80002521 <_Z9GetModulei+0x29>
ffffffff8000251a:	b8 00 00 00 00       	mov    $0x0,%eax
ffffffff8000251f:	eb 21                	jmp    ffffffff80002542 <_Z9GetModulei+0x4a>
ffffffff80002521:	48 8b 05 f0 09 00 00 	mov    0x9f0(%rip),%rax        # ffffffff80002f18 <_ZL7modules+0x18>
ffffffff80002528:	48 8b 48 08          	mov    0x8(%rax),%rcx
ffffffff8000252c:	8b 45 fc             	mov    -0x4(%rbp),%eax
ffffffff8000252f:	48 63 d0             	movslq %eax,%rdx
ffffffff80002532:	48 89 d0             	mov    %rdx,%rax
ffffffff80002535:	48 01 c0             	add    %rax,%rax
ffffffff80002538:	48 01 d0             	add    %rdx,%rax
ffffffff8000253b:	48 c1 e0 03          	shl    $0x3,%rax
ffffffff8000253f:	48 01 c8             	add    %rcx,%rax
ffffffff80002542:	c9                   	leave
ffffffff80002543:	c3                   	ret
ffffffff80002544:	66 2e 0f 1f 84 00 00 	cs nopw 0x0(%rax,%rax,1)
ffffffff8000254b:	00 00 00 
ffffffff8000254e:	66 90                	xchg   %ax,%ax

ffffffff80002550 <ExceptionFrameAssembler>:
ffffffff80002550:	55                   	push   %rbp
ffffffff80002551:	48 89 e5             	mov    %rsp,%rbp
ffffffff80002554:	50                   	push   %rax
ffffffff80002555:	53                   	push   %rbx
ffffffff80002556:	51                   	push   %rcx
ffffffff80002557:	52                   	push   %rdx
ffffffff80002558:	56                   	push   %rsi
ffffffff80002559:	57                   	push   %rdi
ffffffff8000255a:	41 57                	push   %r15
ffffffff8000255c:	41 56                	push   %r14
ffffffff8000255e:	41 55                	push   %r13
ffffffff80002560:	41 54                	push   %r12
ffffffff80002562:	41 53                	push   %r11
ffffffff80002564:	41 52                	push   %r10
ffffffff80002566:	41 51                	push   %r9
ffffffff80002568:	41 50                	push   %r8
ffffffff8000256a:	0f 20 c0             	mov    %cr0,%rax
ffffffff8000256d:	50                   	push   %rax
ffffffff8000256e:	0f 20 d0             	mov    %cr2,%rax
ffffffff80002571:	50                   	push   %rax
ffffffff80002572:	0f 20 d8             	mov    %cr3,%rax
ffffffff80002575:	50                   	push   %rax
ffffffff80002576:	0f 20 e0             	mov    %cr4,%rax
ffffffff80002579:	50                   	push   %rax
ffffffff8000257a:	66 8c d8             	mov    %ds,%ax
ffffffff8000257d:	50                   	push   %rax
ffffffff8000257e:	6a 00                	push   $0x0
ffffffff80002580:	66 b8 10 00          	mov    $0x10,%ax
ffffffff80002584:	8e d8                	mov    %eax,%ds
ffffffff80002586:	8e c0                	mov    %eax,%es
ffffffff80002588:	8e d0                	mov    %eax,%ss
ffffffff8000258a:	48 8d 7c 24 10       	lea    0x10(%rsp),%rdi
ffffffff8000258f:	e8 cd de ff ff       	call   ffffffff80000461 <ISRExceptionHandler>
ffffffff80002594:	58                   	pop    %rax
ffffffff80002595:	58                   	pop    %rax
ffffffff80002596:	8e d8                	mov    %eax,%ds
ffffffff80002598:	8e c0                	mov    %eax,%es
ffffffff8000259a:	58                   	pop    %rax
ffffffff8000259b:	0f 22 e0             	mov    %rax,%cr4
ffffffff8000259e:	58                   	pop    %rax
ffffffff8000259f:	0f 22 d8             	mov    %rax,%cr3
ffffffff800025a2:	58                   	pop    %rax
ffffffff800025a3:	0f 22 d0             	mov    %rax,%cr2
ffffffff800025a6:	58                   	pop    %rax
ffffffff800025a7:	0f 22 c0             	mov    %rax,%cr0
ffffffff800025aa:	41 58                	pop    %r8
ffffffff800025ac:	41 59                	pop    %r9
ffffffff800025ae:	41 5a                	pop    %r10
ffffffff800025b0:	41 5b                	pop    %r11
ffffffff800025b2:	41 5c                	pop    %r12
ffffffff800025b4:	41 5d                	pop    %r13
ffffffff800025b6:	41 5e                	pop    %r14
ffffffff800025b8:	41 5f                	pop    %r15
ffffffff800025ba:	5f                   	pop    %rdi
ffffffff800025bb:	5e                   	pop    %rsi
ffffffff800025bc:	5a                   	pop    %rdx
ffffffff800025bd:	59                   	pop    %rcx
ffffffff800025be:	5b                   	pop    %rbx
ffffffff800025bf:	58                   	pop    %rax
ffffffff800025c0:	5d                   	pop    %rbp
ffffffff800025c1:	48 83 c4 10          	add    $0x10,%rsp
ffffffff800025c5:	48 cf                	iretq

ffffffff800025c7 <IRQFrameAssembler>:
ffffffff800025c7:	55                   	push   %rbp
ffffffff800025c8:	48 89 e5             	mov    %rsp,%rbp
ffffffff800025cb:	50                   	push   %rax
ffffffff800025cc:	53                   	push   %rbx
ffffffff800025cd:	51                   	push   %rcx
ffffffff800025ce:	52                   	push   %rdx
ffffffff800025cf:	56                   	push   %rsi
ffffffff800025d0:	57                   	push   %rdi
ffffffff800025d1:	41 57                	push   %r15
ffffffff800025d3:	41 56                	push   %r14
ffffffff800025d5:	41 55                	push   %r13
ffffffff800025d7:	41 54                	push   %r12
ffffffff800025d9:	41 53                	push   %r11
ffffffff800025db:	41 52                	push   %r10
ffffffff800025dd:	41 51                	push   %r9
ffffffff800025df:	41 50                	push   %r8
ffffffff800025e1:	0f 20 c0             	mov    %cr0,%rax
ffffffff800025e4:	50                   	push   %rax
ffffffff800025e5:	0f 20 d0             	mov    %cr2,%rax
ffffffff800025e8:	50                   	push   %rax
ffffffff800025e9:	0f 20 d8             	mov    %cr3,%rax
ffffffff800025ec:	50                   	push   %rax
ffffffff800025ed:	0f 20 e0             	mov    %cr4,%rax
ffffffff800025f0:	50                   	push   %rax
ffffffff800025f1:	66 8c d8             	mov    %ds,%ax
ffffffff800025f4:	50                   	push   %rax
ffffffff800025f5:	6a 00                	push   $0x0
ffffffff800025f7:	66 b8 10 00          	mov    $0x10,%ax
ffffffff800025fb:	8e d8                	mov    %eax,%ds
ffffffff800025fd:	8e c0                	mov    %eax,%es
ffffffff800025ff:	8e d0                	mov    %eax,%ss
ffffffff80002601:	48 8d 7c 24 10       	lea    0x10(%rsp),%rdi
ffffffff80002606:	e8 66 db ff ff       	call   ffffffff80000171 <IRQHandler>
ffffffff8000260b:	58                   	pop    %rax
ffffffff8000260c:	58                   	pop    %rax
ffffffff8000260d:	8e d8                	mov    %eax,%ds
ffffffff8000260f:	8e c0                	mov    %eax,%es
ffffffff80002611:	58                   	pop    %rax
ffffffff80002612:	0f 22 e0             	mov    %rax,%cr4
ffffffff80002615:	58                   	pop    %rax
ffffffff80002616:	0f 22 d8             	mov    %rax,%cr3
ffffffff80002619:	58                   	pop    %rax
ffffffff8000261a:	0f 22 d0             	mov    %rax,%cr2
ffffffff8000261d:	58                   	pop    %rax
ffffffff8000261e:	0f 22 c0             	mov    %rax,%cr0
ffffffff80002621:	41 58                	pop    %r8
ffffffff80002623:	41 59                	pop    %r9
ffffffff80002625:	41 5a                	pop    %r10
ffffffff80002627:	41 5b                	pop    %r11
ffffffff80002629:	41 5c                	pop    %r12
ffffffff8000262b:	41 5d                	pop    %r13
ffffffff8000262d:	41 5e                	pop    %r14
ffffffff8000262f:	41 5f                	pop    %r15
ffffffff80002631:	5f                   	pop    %rdi
ffffffff80002632:	5e                   	pop    %rsi
ffffffff80002633:	5a                   	pop    %rdx
ffffffff80002634:	59                   	pop    %rcx
ffffffff80002635:	5b                   	pop    %rbx
ffffffff80002636:	58                   	pop    %rax
ffffffff80002637:	5d                   	pop    %rbp
ffffffff80002638:	48 83 c4 10          	add    $0x10,%rsp
ffffffff8000263c:	48 cf                	iretq

ffffffff8000263e <SyscallHandler>:
ffffffff8000263e:	55                   	push   %rbp
ffffffff8000263f:	48 89 e5             	mov    %rsp,%rbp
ffffffff80002642:	50                   	push   %rax
ffffffff80002643:	53                   	push   %rbx
ffffffff80002644:	51                   	push   %rcx
ffffffff80002645:	52                   	push   %rdx
ffffffff80002646:	56                   	push   %rsi
ffffffff80002647:	57                   	push   %rdi
ffffffff80002648:	41 57                	push   %r15
ffffffff8000264a:	41 56                	push   %r14
ffffffff8000264c:	41 55                	push   %r13
ffffffff8000264e:	41 54                	push   %r12
ffffffff80002650:	41 53                	push   %r11
ffffffff80002652:	41 52                	push   %r10
ffffffff80002654:	41 51                	push   %r9
ffffffff80002656:	41 50                	push   %r8
ffffffff80002658:	0f 20 c0             	mov    %cr0,%rax
ffffffff8000265b:	50                   	push   %rax
ffffffff8000265c:	0f 20 d0             	mov    %cr2,%rax
ffffffff8000265f:	50                   	push   %rax
ffffffff80002660:	0f 20 d8             	mov    %cr3,%rax
ffffffff80002663:	50                   	push   %rax
ffffffff80002664:	0f 20 e0             	mov    %cr4,%rax
ffffffff80002667:	50                   	push   %rax
ffffffff80002668:	66 8c d8             	mov    %ds,%ax
ffffffff8000266b:	50                   	push   %rax
ffffffff8000266c:	6a 00                	push   $0x0
ffffffff8000266e:	66 b8 10 00          	mov    $0x10,%ax
ffffffff80002672:	8e d8                	mov    %eax,%ds
ffffffff80002674:	8e c0                	mov    %eax,%es
ffffffff80002676:	8e d0                	mov    %eax,%ss
ffffffff80002678:	48 8d 7c 24 10       	lea    0x10(%rsp),%rdi
ffffffff8000267d:	e8 6a fc ff ff       	call   ffffffff800022ec <SystemCallHandler>
ffffffff80002682:	58                   	pop    %rax
ffffffff80002683:	58                   	pop    %rax
ffffffff80002684:	8e d8                	mov    %eax,%ds
ffffffff80002686:	8e c0                	mov    %eax,%es
ffffffff80002688:	58                   	pop    %rax
ffffffff80002689:	0f 22 e0             	mov    %rax,%cr4
ffffffff8000268c:	58                   	pop    %rax
ffffffff8000268d:	0f 22 d8             	mov    %rax,%cr3
ffffffff80002690:	58                   	pop    %rax
ffffffff80002691:	0f 22 d0             	mov    %rax,%cr2
ffffffff80002694:	58                   	pop    %rax
ffffffff80002695:	0f 22 c0             	mov    %rax,%cr0
ffffffff80002698:	41 58                	pop    %r8
ffffffff8000269a:	41 59                	pop    %r9
ffffffff8000269c:	41 5a                	pop    %r10
ffffffff8000269e:	41 5b                	pop    %r11
ffffffff800026a0:	41 5c                	pop    %r12
ffffffff800026a2:	41 5d                	pop    %r13
ffffffff800026a4:	41 5e                	pop    %r14
ffffffff800026a6:	41 5f                	pop    %r15
ffffffff800026a8:	5f                   	pop    %rdi
ffffffff800026a9:	5e                   	pop    %rsi
ffffffff800026aa:	5a                   	pop    %rdx
ffffffff800026ab:	59                   	pop    %rcx
ffffffff800026ac:	5b                   	pop    %rbx
ffffffff800026ad:	58                   	pop    %rax
ffffffff800026ae:	5d                   	pop    %rbp
ffffffff800026af:	48 cf                	iretq

ffffffff800026b1 <ExceptionStub0>:
ffffffff800026b1:	6a 00                	push   $0x0
ffffffff800026b3:	e9 98 fe ff ff       	jmp    ffffffff80002550 <ExceptionFrameAssembler>

ffffffff800026b8 <ExceptionStub1>:
ffffffff800026b8:	6a 00                	push   $0x0
ffffffff800026ba:	6a 01                	push   $0x1
ffffffff800026bc:	e9 8f fe ff ff       	jmp    ffffffff80002550 <ExceptionFrameAssembler>

ffffffff800026c1 <ExceptionStub2>:
ffffffff800026c1:	6a 00                	push   $0x0
ffffffff800026c3:	6a 02                	push   $0x2
ffffffff800026c5:	e9 86 fe ff ff       	jmp    ffffffff80002550 <ExceptionFrameAssembler>

ffffffff800026ca <ExceptionStub3>:
ffffffff800026ca:	6a 00                	push   $0x0
ffffffff800026cc:	6a 03                	push   $0x3
ffffffff800026ce:	e9 7d fe ff ff       	jmp    ffffffff80002550 <ExceptionFrameAssembler>

ffffffff800026d3 <ExceptionStub4>:
ffffffff800026d3:	6a 00                	push   $0x0
ffffffff800026d5:	6a 04                	push   $0x4
ffffffff800026d7:	e9 74 fe ff ff       	jmp    ffffffff80002550 <ExceptionFrameAssembler>

ffffffff800026dc <ExceptionStub5>:
ffffffff800026dc:	6a 00                	push   $0x0
ffffffff800026de:	6a 05                	push   $0x5
ffffffff800026e0:	e9 6b fe ff ff       	jmp    ffffffff80002550 <ExceptionFrameAssembler>

ffffffff800026e5 <ExceptionStub6>:
ffffffff800026e5:	6a 00                	push   $0x0
ffffffff800026e7:	6a 06                	push   $0x6
ffffffff800026e9:	e9 62 fe ff ff       	jmp    ffffffff80002550 <ExceptionFrameAssembler>

ffffffff800026ee <ExceptionStub7>:
ffffffff800026ee:	6a 00                	push   $0x0
ffffffff800026f0:	6a 07                	push   $0x7
ffffffff800026f2:	e9 59 fe ff ff       	jmp    ffffffff80002550 <ExceptionFrameAssembler>

ffffffff800026f7 <ExceptionStub8>:
ffffffff800026f7:	6a 08                	push   $0x8
ffffffff800026f9:	e9 52 fe ff ff       	jmp    ffffffff80002550 <ExceptionFrameAssembler>

ffffffff800026fe <ExceptionStub9>:
ffffffff800026fe:	6a 00                	push   $0x0
ffffffff80002700:	6a 09                	push   $0x9
ffffffff80002702:	e9 49 fe ff ff       	jmp    ffffffff80002550 <ExceptionFrameAssembler>

ffffffff80002707 <ExceptionStub10>:
ffffffff80002707:	6a 0a                	push   $0xa
ffffffff80002709:	e9 42 fe ff ff       	jmp    ffffffff80002550 <ExceptionFrameAssembler>

ffffffff8000270e <ExceptionStub11>:
ffffffff8000270e:	6a 0b                	push   $0xb
ffffffff80002710:	e9 3b fe ff ff       	jmp    ffffffff80002550 <ExceptionFrameAssembler>

ffffffff80002715 <ExceptionStub12>:
ffffffff80002715:	6a 0c                	push   $0xc
ffffffff80002717:	e9 34 fe ff ff       	jmp    ffffffff80002550 <ExceptionFrameAssembler>

ffffffff8000271c <ExceptionStub13>:
ffffffff8000271c:	6a 0d                	push   $0xd
ffffffff8000271e:	e9 2d fe ff ff       	jmp    ffffffff80002550 <ExceptionFrameAssembler>

ffffffff80002723 <ExceptionStub14>:
ffffffff80002723:	6a 0e                	push   $0xe
ffffffff80002725:	e9 26 fe ff ff       	jmp    ffffffff80002550 <ExceptionFrameAssembler>

ffffffff8000272a <ExceptionStub15>:
ffffffff8000272a:	6a 00                	push   $0x0
ffffffff8000272c:	6a 0f                	push   $0xf
ffffffff8000272e:	e9 1d fe ff ff       	jmp    ffffffff80002550 <ExceptionFrameAssembler>

ffffffff80002733 <ExceptionStub16>:
ffffffff80002733:	6a 00                	push   $0x0
ffffffff80002735:	6a 10                	push   $0x10
ffffffff80002737:	e9 14 fe ff ff       	jmp    ffffffff80002550 <ExceptionFrameAssembler>

ffffffff8000273c <ExceptionStub17>:
ffffffff8000273c:	6a 11                	push   $0x11
ffffffff8000273e:	e9 0d fe ff ff       	jmp    ffffffff80002550 <ExceptionFrameAssembler>

ffffffff80002743 <ExceptionStub18>:
ffffffff80002743:	6a 00                	push   $0x0
ffffffff80002745:	6a 12                	push   $0x12
ffffffff80002747:	e9 04 fe ff ff       	jmp    ffffffff80002550 <ExceptionFrameAssembler>

ffffffff8000274c <ExceptionStub19>:
ffffffff8000274c:	6a 00                	push   $0x0
ffffffff8000274e:	6a 13                	push   $0x13
ffffffff80002750:	e9 fb fd ff ff       	jmp    ffffffff80002550 <ExceptionFrameAssembler>

ffffffff80002755 <ExceptionStub20>:
ffffffff80002755:	6a 00                	push   $0x0
ffffffff80002757:	6a 14                	push   $0x14
ffffffff80002759:	e9 f2 fd ff ff       	jmp    ffffffff80002550 <ExceptionFrameAssembler>

ffffffff8000275e <ExceptionStub21>:
ffffffff8000275e:	6a 00                	push   $0x0
ffffffff80002760:	6a 15                	push   $0x15
ffffffff80002762:	e9 e9 fd ff ff       	jmp    ffffffff80002550 <ExceptionFrameAssembler>

ffffffff80002767 <ExceptionStub22>:
ffffffff80002767:	6a 00                	push   $0x0
ffffffff80002769:	6a 16                	push   $0x16
ffffffff8000276b:	e9 e0 fd ff ff       	jmp    ffffffff80002550 <ExceptionFrameAssembler>

ffffffff80002770 <ExceptionStub23>:
ffffffff80002770:	6a 00                	push   $0x0
ffffffff80002772:	6a 17                	push   $0x17
ffffffff80002774:	e9 d7 fd ff ff       	jmp    ffffffff80002550 <ExceptionFrameAssembler>

ffffffff80002779 <ExceptionStub24>:
ffffffff80002779:	6a 00                	push   $0x0
ffffffff8000277b:	6a 18                	push   $0x18
ffffffff8000277d:	e9 ce fd ff ff       	jmp    ffffffff80002550 <ExceptionFrameAssembler>

ffffffff80002782 <ExceptionStub25>:
ffffffff80002782:	6a 00                	push   $0x0
ffffffff80002784:	6a 19                	push   $0x19
ffffffff80002786:	e9 c5 fd ff ff       	jmp    ffffffff80002550 <ExceptionFrameAssembler>

ffffffff8000278b <ExceptionStub26>:
ffffffff8000278b:	6a 00                	push   $0x0
ffffffff8000278d:	6a 1a                	push   $0x1a
ffffffff8000278f:	e9 bc fd ff ff       	jmp    ffffffff80002550 <ExceptionFrameAssembler>

ffffffff80002794 <ExceptionStub27>:
ffffffff80002794:	6a 00                	push   $0x0
ffffffff80002796:	6a 1b                	push   $0x1b
ffffffff80002798:	e9 b3 fd ff ff       	jmp    ffffffff80002550 <ExceptionFrameAssembler>

ffffffff8000279d <ExceptionStub28>:
ffffffff8000279d:	6a 00                	push   $0x0
ffffffff8000279f:	6a 1c                	push   $0x1c
ffffffff800027a1:	e9 aa fd ff ff       	jmp    ffffffff80002550 <ExceptionFrameAssembler>

ffffffff800027a6 <ExceptionStub29>:
ffffffff800027a6:	6a 00                	push   $0x0
ffffffff800027a8:	6a 1d                	push   $0x1d
ffffffff800027aa:	e9 a1 fd ff ff       	jmp    ffffffff80002550 <ExceptionFrameAssembler>

ffffffff800027af <ExceptionStub30>:
ffffffff800027af:	6a 1e                	push   $0x1e
ffffffff800027b1:	e9 9a fd ff ff       	jmp    ffffffff80002550 <ExceptionFrameAssembler>

ffffffff800027b6 <ExceptionStub31>:
ffffffff800027b6:	6a 00                	push   $0x0
ffffffff800027b8:	6a 1f                	push   $0x1f
ffffffff800027ba:	e9 91 fd ff ff       	jmp    ffffffff80002550 <ExceptionFrameAssembler>

ffffffff800027bf <IRQStub0>:
ffffffff800027bf:	6a 00                	push   $0x0
ffffffff800027c1:	6a 00                	push   $0x0
ffffffff800027c3:	e9 ff fd ff ff       	jmp    ffffffff800025c7 <IRQFrameAssembler>

ffffffff800027c8 <IRQStub1>:
ffffffff800027c8:	6a 00                	push   $0x0
ffffffff800027ca:	6a 01                	push   $0x1
ffffffff800027cc:	e9 f6 fd ff ff       	jmp    ffffffff800025c7 <IRQFrameAssembler>

ffffffff800027d1 <IRQStub2>:
ffffffff800027d1:	6a 00                	push   $0x0
ffffffff800027d3:	6a 02                	push   $0x2
ffffffff800027d5:	e9 ed fd ff ff       	jmp    ffffffff800025c7 <IRQFrameAssembler>

ffffffff800027da <IRQStub3>:
ffffffff800027da:	6a 00                	push   $0x0
ffffffff800027dc:	6a 03                	push   $0x3
ffffffff800027de:	e9 e4 fd ff ff       	jmp    ffffffff800025c7 <IRQFrameAssembler>

ffffffff800027e3 <IRQStub4>:
ffffffff800027e3:	6a 00                	push   $0x0
ffffffff800027e5:	6a 04                	push   $0x4
ffffffff800027e7:	e9 db fd ff ff       	jmp    ffffffff800025c7 <IRQFrameAssembler>

ffffffff800027ec <IRQStub5>:
ffffffff800027ec:	6a 00                	push   $0x0
ffffffff800027ee:	6a 05                	push   $0x5
ffffffff800027f0:	e9 d2 fd ff ff       	jmp    ffffffff800025c7 <IRQFrameAssembler>

ffffffff800027f5 <IRQStub6>:
ffffffff800027f5:	6a 00                	push   $0x0
ffffffff800027f7:	6a 06                	push   $0x6
ffffffff800027f9:	e9 c9 fd ff ff       	jmp    ffffffff800025c7 <IRQFrameAssembler>

ffffffff800027fe <IRQStub7>:
ffffffff800027fe:	6a 00                	push   $0x0
ffffffff80002800:	6a 07                	push   $0x7
ffffffff80002802:	e9 c0 fd ff ff       	jmp    ffffffff800025c7 <IRQFrameAssembler>

ffffffff80002807 <IRQStub8>:
ffffffff80002807:	6a 00                	push   $0x0
ffffffff80002809:	6a 08                	push   $0x8
ffffffff8000280b:	e9 b7 fd ff ff       	jmp    ffffffff800025c7 <IRQFrameAssembler>

ffffffff80002810 <IRQStub9>:
ffffffff80002810:	6a 00                	push   $0x0
ffffffff80002812:	6a 09                	push   $0x9
ffffffff80002814:	e9 ae fd ff ff       	jmp    ffffffff800025c7 <IRQFrameAssembler>

ffffffff80002819 <IRQStub10>:
ffffffff80002819:	6a 00                	push   $0x0
ffffffff8000281b:	6a 0a                	push   $0xa
ffffffff8000281d:	e9 a5 fd ff ff       	jmp    ffffffff800025c7 <IRQFrameAssembler>

ffffffff80002822 <IRQStub11>:
ffffffff80002822:	6a 00                	push   $0x0
ffffffff80002824:	6a 0b                	push   $0xb
ffffffff80002826:	e9 9c fd ff ff       	jmp    ffffffff800025c7 <IRQFrameAssembler>

ffffffff8000282b <IRQStub12>:
ffffffff8000282b:	6a 00                	push   $0x0
ffffffff8000282d:	6a 0c                	push   $0xc
ffffffff8000282f:	e9 93 fd ff ff       	jmp    ffffffff800025c7 <IRQFrameAssembler>

ffffffff80002834 <IRQStub13>:
ffffffff80002834:	6a 00                	push   $0x0
ffffffff80002836:	6a 0d                	push   $0xd
ffffffff80002838:	e9 8a fd ff ff       	jmp    ffffffff800025c7 <IRQFrameAssembler>

ffffffff8000283d <IRQStub14>:
ffffffff8000283d:	6a 00                	push   $0x0
ffffffff8000283f:	6a 0e                	push   $0xe
ffffffff80002841:	e9 81 fd ff ff       	jmp    ffffffff800025c7 <IRQFrameAssembler>

ffffffff80002846 <IRQStub15>:
ffffffff80002846:	6a 00                	push   $0x0
ffffffff80002848:	6a 0f                	push   $0xf
ffffffff8000284a:	e9 78 fd ff ff       	jmp    ffffffff800025c7 <IRQFrameAssembler>

ffffffff8000284f <ExceptionStubTable>:
ffffffff8000284f:	b1 26                	mov    $0x26,%cl
ffffffff80002851:	00 80 ff ff ff ff    	add    %al,-0x1(%rax)
ffffffff80002857:	b8 26 00 80 ff       	mov    $0xff800026,%eax
ffffffff8000285c:	ff                   	(bad)
ffffffff8000285d:	ff                   	(bad)
ffffffff8000285e:	ff c1                	inc    %ecx
ffffffff80002860:	26 00 80 ff ff ff ff 	es add %al,-0x1(%rax)
ffffffff80002867:	ca 26 00             	lret   $0x26
ffffffff8000286a:	80 ff ff             	cmp    $0xff,%bh
ffffffff8000286d:	ff                   	(bad)
ffffffff8000286e:	ff d3                	call   *%rbx
ffffffff80002870:	26 00 80 ff ff ff ff 	es add %al,-0x1(%rax)
ffffffff80002877:	dc 26                	fsubl  (%rsi)
ffffffff80002879:	00 80 ff ff ff ff    	add    %al,-0x1(%rax)
ffffffff8000287f:	e5 26                	in     $0x26,%eax
ffffffff80002881:	00 80 ff ff ff ff    	add    %al,-0x1(%rax)
ffffffff80002887:	ee                   	out    %al,(%dx)
ffffffff80002888:	26 00 80 ff ff ff ff 	es add %al,-0x1(%rax)
ffffffff8000288f:	f7 26                	mull   (%rsi)
ffffffff80002891:	00 80 ff ff ff ff    	add    %al,-0x1(%rax)
ffffffff80002897:	fe                   	(bad)
ffffffff80002898:	26 00 80 ff ff ff ff 	es add %al,-0x1(%rax)
ffffffff8000289f:	07                   	(bad)
ffffffff800028a0:	27                   	(bad)
ffffffff800028a1:	00 80 ff ff ff ff    	add    %al,-0x1(%rax)
ffffffff800028a7:	0e                   	(bad)
ffffffff800028a8:	27                   	(bad)
ffffffff800028a9:	00 80 ff ff ff ff    	add    %al,-0x1(%rax)
ffffffff800028af:	15 27 00 80 ff       	adc    $0xff800027,%eax
ffffffff800028b4:	ff                   	(bad)
ffffffff800028b5:	ff                   	(bad)
ffffffff800028b6:	ff 1c 27             	lcall  *(%rdi,%riz,1)
ffffffff800028b9:	00 80 ff ff ff ff    	add    %al,-0x1(%rax)
ffffffff800028bf:	23 27                	and    (%rdi),%esp
ffffffff800028c1:	00 80 ff ff ff ff    	add    %al,-0x1(%rax)
ffffffff800028c7:	2a 27                	sub    (%rdi),%ah
ffffffff800028c9:	00 80 ff ff ff ff    	add    %al,-0x1(%rax)
ffffffff800028cf:	33 27                	xor    (%rdi),%esp
ffffffff800028d1:	00 80 ff ff ff ff    	add    %al,-0x1(%rax)
ffffffff800028d7:	3c 27                	cmp    $0x27,%al
ffffffff800028d9:	00 80 ff ff ff ff    	add    %al,-0x1(%rax)
ffffffff800028df:	43 27                	rex.XB (bad)
ffffffff800028e1:	00 80 ff ff ff ff    	add    %al,-0x1(%rax)
ffffffff800028e7:	4c 27                	rex.WR (bad)
ffffffff800028e9:	00 80 ff ff ff ff    	add    %al,-0x1(%rax)
ffffffff800028ef:	55                   	push   %rbp
ffffffff800028f0:	27                   	(bad)
ffffffff800028f1:	00 80 ff ff ff ff    	add    %al,-0x1(%rax)
ffffffff800028f7:	5e                   	pop    %rsi
ffffffff800028f8:	27                   	(bad)
ffffffff800028f9:	00 80 ff ff ff ff    	add    %al,-0x1(%rax)
ffffffff800028ff:	67 27                	addr32 (bad)
ffffffff80002901:	00 80 ff ff ff ff    	add    %al,-0x1(%rax)
ffffffff80002907:	70 27                	jo     ffffffff80002930 <ExceptionStubTable+0xe1>
ffffffff80002909:	00 80 ff ff ff ff    	add    %al,-0x1(%rax)
ffffffff8000290f:	79 27                	jns    ffffffff80002938 <ExceptionStubTable+0xe9>
ffffffff80002911:	00 80 ff ff ff ff    	add    %al,-0x1(%rax)
ffffffff80002917:	82                   	(bad)
ffffffff80002918:	27                   	(bad)
ffffffff80002919:	00 80 ff ff ff ff    	add    %al,-0x1(%rax)
ffffffff8000291f:	8b 27                	mov    (%rdi),%esp
ffffffff80002921:	00 80 ff ff ff ff    	add    %al,-0x1(%rax)
ffffffff80002927:	94                   	xchg   %eax,%esp
ffffffff80002928:	27                   	(bad)
ffffffff80002929:	00 80 ff ff ff ff    	add    %al,-0x1(%rax)
ffffffff8000292f:	9d                   	popf
ffffffff80002930:	27                   	(bad)
ffffffff80002931:	00 80 ff ff ff ff    	add    %al,-0x1(%rax)
ffffffff80002937:	a6                   	cmpsb  %es:(%rdi),%ds:(%rsi)
ffffffff80002938:	27                   	(bad)
ffffffff80002939:	00 80 ff ff ff ff    	add    %al,-0x1(%rax)
ffffffff8000293f:	af                   	scas   %es:(%rdi),%eax
ffffffff80002940:	27                   	(bad)
ffffffff80002941:	00 80 ff ff ff ff    	add    %al,-0x1(%rax)
ffffffff80002947:	b6 27                	mov    $0x27,%dh
ffffffff80002949:	00 80 ff ff ff ff    	add    %al,-0x1(%rax)

ffffffff8000294f <IRQStubTable>:
ffffffff8000294f:	bf 27 00 80 ff       	mov    $0xff800027,%edi
ffffffff80002954:	ff                   	(bad)
ffffffff80002955:	ff                   	(bad)
ffffffff80002956:	ff c8                	dec    %eax
ffffffff80002958:	27                   	(bad)
ffffffff80002959:	00 80 ff ff ff ff    	add    %al,-0x1(%rax)
ffffffff8000295f:	d1 27                	shll   (%rdi)
ffffffff80002961:	00 80 ff ff ff ff    	add    %al,-0x1(%rax)
ffffffff80002967:	da 27                	fisubl (%rdi)
ffffffff80002969:	00 80 ff ff ff ff    	add    %al,-0x1(%rax)
ffffffff8000296f:	e3 27                	jrcxz  ffffffff80002998 <IRQStubTable+0x49>
ffffffff80002971:	00 80 ff ff ff ff    	add    %al,-0x1(%rax)
ffffffff80002977:	ec                   	in     (%dx),%al
ffffffff80002978:	27                   	(bad)
ffffffff80002979:	00 80 ff ff ff ff    	add    %al,-0x1(%rax)
ffffffff8000297f:	f5                   	cmc
ffffffff80002980:	27                   	(bad)
ffffffff80002981:	00 80 ff ff ff ff    	add    %al,-0x1(%rax)
ffffffff80002987:	fe                   	(bad)
ffffffff80002988:	27                   	(bad)
ffffffff80002989:	00 80 ff ff ff ff    	add    %al,-0x1(%rax)
ffffffff8000298f:	07                   	(bad)
ffffffff80002990:	28 00                	sub    %al,(%rax)
ffffffff80002992:	80 ff ff             	cmp    $0xff,%bh
ffffffff80002995:	ff                   	(bad)
ffffffff80002996:	ff 10                	call   *(%rax)
ffffffff80002998:	28 00                	sub    %al,(%rax)
ffffffff8000299a:	80 ff ff             	cmp    $0xff,%bh
ffffffff8000299d:	ff                   	(bad)
ffffffff8000299e:	ff 19                	lcall  *(%rcx)
ffffffff800029a0:	28 00                	sub    %al,(%rax)
ffffffff800029a2:	80 ff ff             	cmp    $0xff,%bh
ffffffff800029a5:	ff                   	(bad)
ffffffff800029a6:	ff 22                	jmp    *(%rdx)
ffffffff800029a8:	28 00                	sub    %al,(%rax)
ffffffff800029aa:	80 ff ff             	cmp    $0xff,%bh
ffffffff800029ad:	ff                   	(bad)
ffffffff800029ae:	ff 2b                	ljmp   *(%rbx)
ffffffff800029b0:	28 00                	sub    %al,(%rax)
ffffffff800029b2:	80 ff ff             	cmp    $0xff,%bh
ffffffff800029b5:	ff                   	(bad)
ffffffff800029b6:	ff 34 28             	push   (%rax,%rbp,1)
ffffffff800029b9:	00 80 ff ff ff ff    	add    %al,-0x1(%rax)
ffffffff800029bf:	3d 28 00 80 ff       	cmp    $0xff800028,%eax
ffffffff800029c4:	ff                   	(bad)
ffffffff800029c5:	ff                   	(bad)
ffffffff800029c6:	ff 66 0f             	jmp    *0xf(%rsi)
ffffffff800029c9:	1f                   	(bad)
ffffffff800029ca:	84 00                	test   %al,(%rax)
ffffffff800029cc:	00 00                	add    %al,(%rax)
	...

ffffffff800029d0 <install_gdt>:
ffffffff800029d0:	fa                   	cli
ffffffff800029d1:	0f 01 17             	lgdt   (%rdi)
ffffffff800029d4:	6a 08                	push   $0x8
ffffffff800029d6:	48 8d 05 03 00 00 00 	lea    0x3(%rip),%rax        # ffffffff800029e0 <install_gdt.reload_segments>
ffffffff800029dd:	50                   	push   %rax
ffffffff800029de:	48 cb                	lretq

ffffffff800029e0 <install_gdt.reload_segments>:
ffffffff800029e0:	66 b8 10 00          	mov    $0x10,%ax
ffffffff800029e4:	8e d8                	mov    %eax,%ds
ffffffff800029e6:	8e c0                	mov    %eax,%es
ffffffff800029e8:	8e e0                	mov    %eax,%fs
ffffffff800029ea:	8e e8                	mov    %eax,%gs
ffffffff800029ec:	8e d0                	mov    %eax,%ss
ffffffff800029ee:	c3                   	ret
ffffffff800029ef:	90                   	nop

ffffffff800029f0 <install_tss>:
ffffffff800029f0:	66 b8 28 00          	mov    $0x28,%ax
ffffffff800029f4:	0f 00 d8             	ltr    %ax
ffffffff800029f7:	c3                   	ret
ffffffff800029f8:	0f 1f 84 00 00 00 00 	nopl   0x0(%rax,%rax,1)
ffffffff800029ff:	00 

ffffffff80002a00 <enter_usermode>:
ffffffff80002a00:	66 b8 23 00          	mov    $0x23,%ax
ffffffff80002a04:	8e d8                	mov    %eax,%ds
ffffffff80002a06:	8e c0                	mov    %eax,%es
ffffffff80002a08:	8e e0                	mov    %eax,%fs
ffffffff80002a0a:	8e e8                	mov    %eax,%gs
ffffffff80002a0c:	6a 23                	push   $0x23
ffffffff80002a0e:	56                   	push   %rsi
ffffffff80002a0f:	68 02 02 00 00       	push   $0x202
ffffffff80002a14:	6a 1b                	push   $0x1b
ffffffff80002a16:	57                   	push   %rdi
ffffffff80002a17:	48 cf                	iretq
